
rtarget:     file format elf64-x86-64


Disassembly of section .init:

0000000000400bb0 <_init>:
  400bb0:	48 83 ec 08          	sub    $0x8,%rsp
  400bb4:	48 8b 05 3d 44 20 00 	mov    0x20443d(%rip),%rax        # 604ff8 <__gmon_start__>
  400bbb:	48 85 c0             	test   %rax,%rax
  400bbe:	74 05                	je     400bc5 <_init+0x15>
  400bc0:	e8 2b 02 00 00       	callq  400df0 <.plt.got>
  400bc5:	48 83 c4 08          	add    $0x8,%rsp
  400bc9:	c3                   	retq   

Disassembly of section .plt:

0000000000400bd0 <.plt>:
  400bd0:	ff 35 32 44 20 00    	pushq  0x204432(%rip)        # 605008 <_GLOBAL_OFFSET_TABLE_+0x8>
  400bd6:	ff 25 34 44 20 00    	jmpq   *0x204434(%rip)        # 605010 <_GLOBAL_OFFSET_TABLE_+0x10>
  400bdc:	0f 1f 40 00          	nopl   0x0(%rax)

0000000000400be0 <strcasecmp@plt>:
  400be0:	ff 25 32 44 20 00    	jmpq   *0x204432(%rip)        # 605018 <strcasecmp@GLIBC_2.2.5>
  400be6:	68 00 00 00 00       	pushq  $0x0
  400beb:	e9 e0 ff ff ff       	jmpq   400bd0 <.plt>

0000000000400bf0 <__errno_location@plt>:
  400bf0:	ff 25 2a 44 20 00    	jmpq   *0x20442a(%rip)        # 605020 <__errno_location@GLIBC_2.2.5>
  400bf6:	68 01 00 00 00       	pushq  $0x1
  400bfb:	e9 d0 ff ff ff       	jmpq   400bd0 <.plt>

0000000000400c00 <srandom@plt>:
  400c00:	ff 25 22 44 20 00    	jmpq   *0x204422(%rip)        # 605028 <srandom@GLIBC_2.2.5>
  400c06:	68 02 00 00 00       	pushq  $0x2
  400c0b:	e9 c0 ff ff ff       	jmpq   400bd0 <.plt>

0000000000400c10 <strncmp@plt>:
  400c10:	ff 25 1a 44 20 00    	jmpq   *0x20441a(%rip)        # 605030 <strncmp@GLIBC_2.2.5>
  400c16:	68 03 00 00 00       	pushq  $0x3
  400c1b:	e9 b0 ff ff ff       	jmpq   400bd0 <.plt>

0000000000400c20 <strcpy@plt>:
  400c20:	ff 25 12 44 20 00    	jmpq   *0x204412(%rip)        # 605038 <strcpy@GLIBC_2.2.5>
  400c26:	68 04 00 00 00       	pushq  $0x4
  400c2b:	e9 a0 ff ff ff       	jmpq   400bd0 <.plt>

0000000000400c30 <puts@plt>:
  400c30:	ff 25 0a 44 20 00    	jmpq   *0x20440a(%rip)        # 605040 <puts@GLIBC_2.2.5>
  400c36:	68 05 00 00 00       	pushq  $0x5
  400c3b:	e9 90 ff ff ff       	jmpq   400bd0 <.plt>

0000000000400c40 <write@plt>:
  400c40:	ff 25 02 44 20 00    	jmpq   *0x204402(%rip)        # 605048 <write@GLIBC_2.2.5>
  400c46:	68 06 00 00 00       	pushq  $0x6
  400c4b:	e9 80 ff ff ff       	jmpq   400bd0 <.plt>

0000000000400c50 <mmap@plt>:
  400c50:	ff 25 fa 43 20 00    	jmpq   *0x2043fa(%rip)        # 605050 <mmap@GLIBC_2.2.5>
  400c56:	68 07 00 00 00       	pushq  $0x7
  400c5b:	e9 70 ff ff ff       	jmpq   400bd0 <.plt>

0000000000400c60 <printf@plt>:
  400c60:	ff 25 f2 43 20 00    	jmpq   *0x2043f2(%rip)        # 605058 <printf@GLIBC_2.2.5>
  400c66:	68 08 00 00 00       	pushq  $0x8
  400c6b:	e9 60 ff ff ff       	jmpq   400bd0 <.plt>

0000000000400c70 <memset@plt>:
  400c70:	ff 25 ea 43 20 00    	jmpq   *0x2043ea(%rip)        # 605060 <memset@GLIBC_2.2.5>
  400c76:	68 09 00 00 00       	pushq  $0x9
  400c7b:	e9 50 ff ff ff       	jmpq   400bd0 <.plt>

0000000000400c80 <alarm@plt>:
  400c80:	ff 25 e2 43 20 00    	jmpq   *0x2043e2(%rip)        # 605068 <alarm@GLIBC_2.2.5>
  400c86:	68 0a 00 00 00       	pushq  $0xa
  400c8b:	e9 40 ff ff ff       	jmpq   400bd0 <.plt>

0000000000400c90 <close@plt>:
  400c90:	ff 25 da 43 20 00    	jmpq   *0x2043da(%rip)        # 605070 <close@GLIBC_2.2.5>
  400c96:	68 0b 00 00 00       	pushq  $0xb
  400c9b:	e9 30 ff ff ff       	jmpq   400bd0 <.plt>

0000000000400ca0 <read@plt>:
  400ca0:	ff 25 d2 43 20 00    	jmpq   *0x2043d2(%rip)        # 605078 <read@GLIBC_2.2.5>
  400ca6:	68 0c 00 00 00       	pushq  $0xc
  400cab:	e9 20 ff ff ff       	jmpq   400bd0 <.plt>

0000000000400cb0 <__libc_start_main@plt>:
  400cb0:	ff 25 ca 43 20 00    	jmpq   *0x2043ca(%rip)        # 605080 <__libc_start_main@GLIBC_2.2.5>
  400cb6:	68 0d 00 00 00       	pushq  $0xd
  400cbb:	e9 10 ff ff ff       	jmpq   400bd0 <.plt>

0000000000400cc0 <signal@plt>:
  400cc0:	ff 25 c2 43 20 00    	jmpq   *0x2043c2(%rip)        # 605088 <signal@GLIBC_2.2.5>
  400cc6:	68 0e 00 00 00       	pushq  $0xe
  400ccb:	e9 00 ff ff ff       	jmpq   400bd0 <.plt>

0000000000400cd0 <gethostbyname@plt>:
  400cd0:	ff 25 ba 43 20 00    	jmpq   *0x2043ba(%rip)        # 605090 <gethostbyname@GLIBC_2.2.5>
  400cd6:	68 0f 00 00 00       	pushq  $0xf
  400cdb:	e9 f0 fe ff ff       	jmpq   400bd0 <.plt>

0000000000400ce0 <fprintf@plt>:
  400ce0:	ff 25 b2 43 20 00    	jmpq   *0x2043b2(%rip)        # 605098 <fprintf@GLIBC_2.2.5>
  400ce6:	68 10 00 00 00       	pushq  $0x10
  400ceb:	e9 e0 fe ff ff       	jmpq   400bd0 <.plt>

0000000000400cf0 <strtol@plt>:
  400cf0:	ff 25 aa 43 20 00    	jmpq   *0x2043aa(%rip)        # 6050a0 <strtol@GLIBC_2.2.5>
  400cf6:	68 11 00 00 00       	pushq  $0x11
  400cfb:	e9 d0 fe ff ff       	jmpq   400bd0 <.plt>

0000000000400d00 <memcpy@plt>:
  400d00:	ff 25 a2 43 20 00    	jmpq   *0x2043a2(%rip)        # 6050a8 <memcpy@GLIBC_2.14>
  400d06:	68 12 00 00 00       	pushq  $0x12
  400d0b:	e9 c0 fe ff ff       	jmpq   400bd0 <.plt>

0000000000400d10 <time@plt>:
  400d10:	ff 25 9a 43 20 00    	jmpq   *0x20439a(%rip)        # 6050b0 <time@GLIBC_2.2.5>
  400d16:	68 13 00 00 00       	pushq  $0x13
  400d1b:	e9 b0 fe ff ff       	jmpq   400bd0 <.plt>

0000000000400d20 <random@plt>:
  400d20:	ff 25 92 43 20 00    	jmpq   *0x204392(%rip)        # 6050b8 <random@GLIBC_2.2.5>
  400d26:	68 14 00 00 00       	pushq  $0x14
  400d2b:	e9 a0 fe ff ff       	jmpq   400bd0 <.plt>

0000000000400d30 <_IO_getc@plt>:
  400d30:	ff 25 8a 43 20 00    	jmpq   *0x20438a(%rip)        # 6050c0 <_IO_getc@GLIBC_2.2.5>
  400d36:	68 15 00 00 00       	pushq  $0x15
  400d3b:	e9 90 fe ff ff       	jmpq   400bd0 <.plt>

0000000000400d40 <__isoc99_sscanf@plt>:
  400d40:	ff 25 82 43 20 00    	jmpq   *0x204382(%rip)        # 6050c8 <__isoc99_sscanf@GLIBC_2.7>
  400d46:	68 16 00 00 00       	pushq  $0x16
  400d4b:	e9 80 fe ff ff       	jmpq   400bd0 <.plt>

0000000000400d50 <munmap@plt>:
  400d50:	ff 25 7a 43 20 00    	jmpq   *0x20437a(%rip)        # 6050d0 <munmap@GLIBC_2.2.5>
  400d56:	68 17 00 00 00       	pushq  $0x17
  400d5b:	e9 70 fe ff ff       	jmpq   400bd0 <.plt>

0000000000400d60 <bcopy@plt>:
  400d60:	ff 25 72 43 20 00    	jmpq   *0x204372(%rip)        # 6050d8 <bcopy@GLIBC_2.2.5>
  400d66:	68 18 00 00 00       	pushq  $0x18
  400d6b:	e9 60 fe ff ff       	jmpq   400bd0 <.plt>

0000000000400d70 <fopen@plt>:
  400d70:	ff 25 6a 43 20 00    	jmpq   *0x20436a(%rip)        # 6050e0 <fopen@GLIBC_2.2.5>
  400d76:	68 19 00 00 00       	pushq  $0x19
  400d7b:	e9 50 fe ff ff       	jmpq   400bd0 <.plt>

0000000000400d80 <getopt@plt>:
  400d80:	ff 25 62 43 20 00    	jmpq   *0x204362(%rip)        # 6050e8 <getopt@GLIBC_2.2.5>
  400d86:	68 1a 00 00 00       	pushq  $0x1a
  400d8b:	e9 40 fe ff ff       	jmpq   400bd0 <.plt>

0000000000400d90 <strtoul@plt>:
  400d90:	ff 25 5a 43 20 00    	jmpq   *0x20435a(%rip)        # 6050f0 <strtoul@GLIBC_2.2.5>
  400d96:	68 1b 00 00 00       	pushq  $0x1b
  400d9b:	e9 30 fe ff ff       	jmpq   400bd0 <.plt>

0000000000400da0 <gethostname@plt>:
  400da0:	ff 25 52 43 20 00    	jmpq   *0x204352(%rip)        # 6050f8 <gethostname@GLIBC_2.2.5>
  400da6:	68 1c 00 00 00       	pushq  $0x1c
  400dab:	e9 20 fe ff ff       	jmpq   400bd0 <.plt>

0000000000400db0 <sprintf@plt>:
  400db0:	ff 25 4a 43 20 00    	jmpq   *0x20434a(%rip)        # 605100 <sprintf@GLIBC_2.2.5>
  400db6:	68 1d 00 00 00       	pushq  $0x1d
  400dbb:	e9 10 fe ff ff       	jmpq   400bd0 <.plt>

0000000000400dc0 <exit@plt>:
  400dc0:	ff 25 42 43 20 00    	jmpq   *0x204342(%rip)        # 605108 <exit@GLIBC_2.2.5>
  400dc6:	68 1e 00 00 00       	pushq  $0x1e
  400dcb:	e9 00 fe ff ff       	jmpq   400bd0 <.plt>

0000000000400dd0 <connect@plt>:
  400dd0:	ff 25 3a 43 20 00    	jmpq   *0x20433a(%rip)        # 605110 <connect@GLIBC_2.2.5>
  400dd6:	68 1f 00 00 00       	pushq  $0x1f
  400ddb:	e9 f0 fd ff ff       	jmpq   400bd0 <.plt>

0000000000400de0 <socket@plt>:
  400de0:	ff 25 32 43 20 00    	jmpq   *0x204332(%rip)        # 605118 <socket@GLIBC_2.2.5>
  400de6:	68 20 00 00 00       	pushq  $0x20
  400deb:	e9 e0 fd ff ff       	jmpq   400bd0 <.plt>

Disassembly of section .plt.got:

0000000000400df0 <.plt.got>:
  400df0:	ff 25 02 42 20 00    	jmpq   *0x204202(%rip)        # 604ff8 <__gmon_start__>
  400df6:	66 90                	xchg   %ax,%ax

Disassembly of section .text:

0000000000400e00 <_start>:
  400e00:	31 ed                	xor    %ebp,%ebp
  400e02:	49 89 d1             	mov    %rdx,%r9
  400e05:	5e                   	pop    %rsi
  400e06:	48 89 e2             	mov    %rsp,%rdx
  400e09:	48 83 e4 f0          	and    $0xfffffffffffffff0,%rsp
  400e0d:	50                   	push   %rax
  400e0e:	54                   	push   %rsp
  400e0f:	49 c7 c0 60 2d 40 00 	mov    $0x402d60,%r8
  400e16:	48 c7 c1 f0 2c 40 00 	mov    $0x402cf0,%rcx
  400e1d:	48 c7 c7 c0 10 40 00 	mov    $0x4010c0,%rdi
  400e24:	e8 87 fe ff ff       	callq  400cb0 <__libc_start_main@plt>
  400e29:	f4                   	hlt    
  400e2a:	66 0f 1f 44 00 00    	nopw   0x0(%rax,%rax,1)

0000000000400e30 <deregister_tm_clones>:
  400e30:	b8 97 54 60 00       	mov    $0x605497,%eax
  400e35:	55                   	push   %rbp
  400e36:	48 2d 90 54 60 00    	sub    $0x605490,%rax
  400e3c:	48 83 f8 0e          	cmp    $0xe,%rax
  400e40:	48 89 e5             	mov    %rsp,%rbp
  400e43:	77 02                	ja     400e47 <deregister_tm_clones+0x17>
  400e45:	5d                   	pop    %rbp
  400e46:	c3                   	retq   
  400e47:	b8 00 00 00 00       	mov    $0x0,%eax
  400e4c:	48 85 c0             	test   %rax,%rax
  400e4f:	74 f4                	je     400e45 <deregister_tm_clones+0x15>
  400e51:	5d                   	pop    %rbp
  400e52:	bf 90 54 60 00       	mov    $0x605490,%edi
  400e57:	ff e0                	jmpq   *%rax
  400e59:	0f 1f 80 00 00 00 00 	nopl   0x0(%rax)

0000000000400e60 <register_tm_clones>:
  400e60:	b8 90 54 60 00       	mov    $0x605490,%eax
  400e65:	55                   	push   %rbp
  400e66:	48 2d 90 54 60 00    	sub    $0x605490,%rax
  400e6c:	48 c1 f8 03          	sar    $0x3,%rax
  400e70:	48 89 e5             	mov    %rsp,%rbp
  400e73:	48 89 c2             	mov    %rax,%rdx
  400e76:	48 c1 ea 3f          	shr    $0x3f,%rdx
  400e7a:	48 01 d0             	add    %rdx,%rax
  400e7d:	48 d1 f8             	sar    %rax
  400e80:	75 02                	jne    400e84 <register_tm_clones+0x24>
  400e82:	5d                   	pop    %rbp
  400e83:	c3                   	retq   
  400e84:	ba 00 00 00 00       	mov    $0x0,%edx
  400e89:	48 85 d2             	test   %rdx,%rdx
  400e8c:	74 f4                	je     400e82 <register_tm_clones+0x22>
  400e8e:	5d                   	pop    %rbp
  400e8f:	48 89 c6             	mov    %rax,%rsi
  400e92:	bf 90 54 60 00       	mov    $0x605490,%edi
  400e97:	ff e2                	jmpq   *%rdx
  400e99:	0f 1f 80 00 00 00 00 	nopl   0x0(%rax)

0000000000400ea0 <__do_global_dtors_aux>:
  400ea0:	80 3d 11 46 20 00 00 	cmpb   $0x0,0x204611(%rip)        # 6054b8 <completed.6355>
  400ea7:	75 11                	jne    400eba <__do_global_dtors_aux+0x1a>
  400ea9:	55                   	push   %rbp
  400eaa:	48 89 e5             	mov    %rsp,%rbp
  400ead:	e8 7e ff ff ff       	callq  400e30 <deregister_tm_clones>
  400eb2:	5d                   	pop    %rbp
  400eb3:	c6 05 fe 45 20 00 01 	movb   $0x1,0x2045fe(%rip)        # 6054b8 <completed.6355>
  400eba:	f3 c3                	repz retq 
  400ebc:	0f 1f 40 00          	nopl   0x0(%rax)

0000000000400ec0 <frame_dummy>:
  400ec0:	48 83 3d 58 3f 20 00 	cmpq   $0x0,0x203f58(%rip)        # 604e20 <__JCR_END__>
  400ec7:	00 
  400ec8:	74 1e                	je     400ee8 <frame_dummy+0x28>
  400eca:	b8 00 00 00 00       	mov    $0x0,%eax
  400ecf:	48 85 c0             	test   %rax,%rax
  400ed2:	74 14                	je     400ee8 <frame_dummy+0x28>
  400ed4:	55                   	push   %rbp
  400ed5:	bf 20 4e 60 00       	mov    $0x604e20,%edi
  400eda:	48 89 e5             	mov    %rsp,%rbp
  400edd:	ff d0                	callq  *%rax
  400edf:	5d                   	pop    %rbp
  400ee0:	e9 7b ff ff ff       	jmpq   400e60 <register_tm_clones>
  400ee5:	0f 1f 00             	nopl   (%rax)
  400ee8:	e9 73 ff ff ff       	jmpq   400e60 <register_tm_clones>
  400eed:	0f 1f 00             	nopl   (%rax)

0000000000400ef0 <usage>:
  400ef0:	48 83 ec 08          	sub    $0x8,%rsp
  400ef4:	48 89 fe             	mov    %rdi,%rsi
  400ef7:	83 3d ea 45 20 00 00 	cmpl   $0x0,0x2045ea(%rip)        # 6054e8 <is_checker>
  400efe:	74 39                	je     400f39 <usage+0x49>
  400f00:	bf 80 2d 40 00       	mov    $0x402d80,%edi
  400f05:	b8 00 00 00 00       	mov    $0x0,%eax
  400f0a:	e8 51 fd ff ff       	callq  400c60 <printf@plt>
  400f0f:	bf b8 2d 40 00       	mov    $0x402db8,%edi
  400f14:	e8 17 fd ff ff       	callq  400c30 <puts@plt>
  400f19:	bf 30 2f 40 00       	mov    $0x402f30,%edi
  400f1e:	e8 0d fd ff ff       	callq  400c30 <puts@plt>
  400f23:	bf e0 2d 40 00       	mov    $0x402de0,%edi
  400f28:	e8 03 fd ff ff       	callq  400c30 <puts@plt>
  400f2d:	bf 4a 2f 40 00       	mov    $0x402f4a,%edi
  400f32:	e8 f9 fc ff ff       	callq  400c30 <puts@plt>
  400f37:	eb 2d                	jmp    400f66 <usage+0x76>
  400f39:	bf 66 2f 40 00       	mov    $0x402f66,%edi
  400f3e:	b8 00 00 00 00       	mov    $0x0,%eax
  400f43:	e8 18 fd ff ff       	callq  400c60 <printf@plt>
  400f48:	bf 08 2e 40 00       	mov    $0x402e08,%edi
  400f4d:	e8 de fc ff ff       	callq  400c30 <puts@plt>
  400f52:	bf 30 2e 40 00       	mov    $0x402e30,%edi
  400f57:	e8 d4 fc ff ff       	callq  400c30 <puts@plt>
  400f5c:	bf 84 2f 40 00       	mov    $0x402f84,%edi
  400f61:	e8 ca fc ff ff       	callq  400c30 <puts@plt>
  400f66:	bf 00 00 00 00       	mov    $0x0,%edi
  400f6b:	e8 50 fe ff ff       	callq  400dc0 <exit@plt>

0000000000400f70 <initialize_target>:
  400f70:	55                   	push   %rbp
  400f71:	53                   	push   %rbx
  400f72:	48 81 ec 08 21 00 00 	sub    $0x2108,%rsp
  400f79:	89 f5                	mov    %esi,%ebp
  400f7b:	89 3d 57 45 20 00    	mov    %edi,0x204557(%rip)        # 6054d8 <check_level>
  400f81:	8b 3d c1 41 20 00    	mov    0x2041c1(%rip),%edi        # 605148 <target_id>
  400f87:	e8 42 1d 00 00       	callq  402cce <gencookie>
  400f8c:	89 05 52 45 20 00    	mov    %eax,0x204552(%rip)        # 6054e4 <cookie>
  400f92:	89 c7                	mov    %eax,%edi
  400f94:	e8 35 1d 00 00       	callq  402cce <gencookie>
  400f99:	89 05 41 45 20 00    	mov    %eax,0x204541(%rip)        # 6054e0 <authkey>
  400f9f:	8b 05 a3 41 20 00    	mov    0x2041a3(%rip),%eax        # 605148 <target_id>
  400fa5:	8d 78 01             	lea    0x1(%rax),%edi
  400fa8:	e8 53 fc ff ff       	callq  400c00 <srandom@plt>
  400fad:	e8 6e fd ff ff       	callq  400d20 <random@plt>
  400fb2:	89 c7                	mov    %eax,%edi
  400fb4:	e8 ca 02 00 00       	callq  401283 <scramble>
  400fb9:	89 c3                	mov    %eax,%ebx
  400fbb:	85 ed                	test   %ebp,%ebp
  400fbd:	74 18                	je     400fd7 <initialize_target+0x67>
  400fbf:	bf 00 00 00 00       	mov    $0x0,%edi
  400fc4:	e8 47 fd ff ff       	callq  400d10 <time@plt>
  400fc9:	89 c7                	mov    %eax,%edi
  400fcb:	e8 30 fc ff ff       	callq  400c00 <srandom@plt>
  400fd0:	e8 4b fd ff ff       	callq  400d20 <random@plt>
  400fd5:	eb 05                	jmp    400fdc <initialize_target+0x6c>
  400fd7:	b8 00 00 00 00       	mov    $0x0,%eax
  400fdc:	01 c3                	add    %eax,%ebx
  400fde:	0f b7 db             	movzwl %bx,%ebx
  400fe1:	8d 04 dd 00 01 00 00 	lea    0x100(,%rbx,8),%eax
  400fe8:	89 c0                	mov    %eax,%eax
  400fea:	48 89 05 8f 44 20 00 	mov    %rax,0x20448f(%rip)        # 605480 <buf_offset>
  400ff1:	c6 05 10 51 20 00 72 	movb   $0x72,0x205110(%rip)        # 606108 <target_prefix>
  400ff8:	83 3d 89 44 20 00 00 	cmpl   $0x0,0x204489(%rip)        # 605488 <notify>
  400fff:	0f 84 b1 00 00 00    	je     4010b6 <initialize_target+0x146>
  401005:	83 3d dc 44 20 00 00 	cmpl   $0x0,0x2044dc(%rip)        # 6054e8 <is_checker>
  40100c:	0f 85 a4 00 00 00    	jne    4010b6 <initialize_target+0x146>
  401012:	be 00 01 00 00       	mov    $0x100,%esi
  401017:	48 89 e7             	mov    %rsp,%rdi
  40101a:	e8 81 fd ff ff       	callq  400da0 <gethostname@plt>
  40101f:	85 c0                	test   %eax,%eax
  401021:	74 25                	je     401048 <initialize_target+0xd8>
  401023:	bf 60 2e 40 00       	mov    $0x402e60,%edi
  401028:	e8 03 fc ff ff       	callq  400c30 <puts@plt>
  40102d:	bf 08 00 00 00       	mov    $0x8,%edi
  401032:	e8 89 fd ff ff       	callq  400dc0 <exit@plt>
  401037:	48 89 e6             	mov    %rsp,%rsi
  40103a:	e8 a1 fb ff ff       	callq  400be0 <strcasecmp@plt>
  40103f:	85 c0                	test   %eax,%eax
  401041:	74 21                	je     401064 <initialize_target+0xf4>
  401043:	83 c3 01             	add    $0x1,%ebx
  401046:	eb 05                	jmp    40104d <initialize_target+0xdd>
  401048:	bb 00 00 00 00       	mov    $0x0,%ebx
  40104d:	48 63 c3             	movslq %ebx,%rax
  401050:	48 8b 3c c5 60 51 60 	mov    0x605160(,%rax,8),%rdi
  401057:	00 
  401058:	48 85 ff             	test   %rdi,%rdi
  40105b:	75 da                	jne    401037 <initialize_target+0xc7>
  40105d:	b8 00 00 00 00       	mov    $0x0,%eax
  401062:	eb 05                	jmp    401069 <initialize_target+0xf9>
  401064:	b8 01 00 00 00       	mov    $0x1,%eax
  401069:	85 c0                	test   %eax,%eax
  40106b:	75 17                	jne    401084 <initialize_target+0x114>
  40106d:	48 89 e6             	mov    %rsp,%rsi
  401070:	bf 98 2e 40 00       	mov    $0x402e98,%edi
  401075:	e8 e6 fb ff ff       	callq  400c60 <printf@plt>
  40107a:	bf 08 00 00 00       	mov    $0x8,%edi
  40107f:	e8 3c fd ff ff       	callq  400dc0 <exit@plt>
  401084:	48 8d bc 24 00 01 00 	lea    0x100(%rsp),%rdi
  40108b:	00 
  40108c:	e8 b9 19 00 00       	callq  402a4a <init_driver>
  401091:	85 c0                	test   %eax,%eax
  401093:	79 21                	jns    4010b6 <initialize_target+0x146>
  401095:	48 8d b4 24 00 01 00 	lea    0x100(%rsp),%rsi
  40109c:	00 
  40109d:	bf d8 2e 40 00       	mov    $0x402ed8,%edi
  4010a2:	b8 00 00 00 00       	mov    $0x0,%eax
  4010a7:	e8 b4 fb ff ff       	callq  400c60 <printf@plt>
  4010ac:	bf 08 00 00 00       	mov    $0x8,%edi
  4010b1:	e8 0a fd ff ff       	callq  400dc0 <exit@plt>
  4010b6:	48 81 c4 08 21 00 00 	add    $0x2108,%rsp
  4010bd:	5b                   	pop    %rbx
  4010be:	5d                   	pop    %rbp
  4010bf:	c3                   	retq   

00000000004010c0 <main>:
  4010c0:	41 56                	push   %r14
  4010c2:	41 55                	push   %r13
  4010c4:	41 54                	push   %r12
  4010c6:	55                   	push   %rbp
  4010c7:	53                   	push   %rbx
  4010c8:	41 89 fc             	mov    %edi,%r12d
  4010cb:	48 89 f3             	mov    %rsi,%rbx
  4010ce:	be 71 1e 40 00       	mov    $0x401e71,%esi
  4010d3:	bf 0b 00 00 00       	mov    $0xb,%edi
  4010d8:	e8 e3 fb ff ff       	callq  400cc0 <signal@plt>
  4010dd:	be 23 1e 40 00       	mov    $0x401e23,%esi
  4010e2:	bf 07 00 00 00       	mov    $0x7,%edi
  4010e7:	e8 d4 fb ff ff       	callq  400cc0 <signal@plt>
  4010ec:	be bf 1e 40 00       	mov    $0x401ebf,%esi
  4010f1:	bf 04 00 00 00       	mov    $0x4,%edi
  4010f6:	e8 c5 fb ff ff       	callq  400cc0 <signal@plt>
  4010fb:	83 3d e6 43 20 00 00 	cmpl   $0x0,0x2043e6(%rip)        # 6054e8 <is_checker>
  401102:	74 20                	je     401124 <main+0x64>
  401104:	be 0d 1f 40 00       	mov    $0x401f0d,%esi
  401109:	bf 0e 00 00 00       	mov    $0xe,%edi
  40110e:	e8 ad fb ff ff       	callq  400cc0 <signal@plt>
  401113:	bf 05 00 00 00       	mov    $0x5,%edi
  401118:	e8 63 fb ff ff       	callq  400c80 <alarm@plt>
  40111d:	bd a2 2f 40 00       	mov    $0x402fa2,%ebp
  401122:	eb 05                	jmp    401129 <main+0x69>
  401124:	bd 9d 2f 40 00       	mov    $0x402f9d,%ebp
  401129:	48 8b 05 70 43 20 00 	mov    0x204370(%rip),%rax        # 6054a0 <stdin@@GLIBC_2.2.5>
  401130:	48 89 05 99 43 20 00 	mov    %rax,0x204399(%rip)        # 6054d0 <infile>
  401137:	41 bd 00 00 00 00    	mov    $0x0,%r13d
  40113d:	41 be 00 00 00 00    	mov    $0x0,%r14d
  401143:	e9 b9 00 00 00       	jmpq   401201 <main+0x141>
  401148:	83 e8 61             	sub    $0x61,%eax
  40114b:	3c 10                	cmp    $0x10,%al
  40114d:	0f 87 93 00 00 00    	ja     4011e6 <main+0x126>
  401153:	0f b6 c0             	movzbl %al,%eax
  401156:	ff 24 c5 e8 2f 40 00 	jmpq   *0x402fe8(,%rax,8)
  40115d:	48 8b 3b             	mov    (%rbx),%rdi
  401160:	e8 8b fd ff ff       	callq  400ef0 <usage>
  401165:	be 55 32 40 00       	mov    $0x403255,%esi
  40116a:	48 8b 3d 37 43 20 00 	mov    0x204337(%rip),%rdi        # 6054a8 <optarg@@GLIBC_2.2.5>
  401171:	e8 fa fb ff ff       	callq  400d70 <fopen@plt>
  401176:	48 89 05 53 43 20 00 	mov    %rax,0x204353(%rip)        # 6054d0 <infile>
  40117d:	48 85 c0             	test   %rax,%rax
  401180:	75 7f                	jne    401201 <main+0x141>
  401182:	48 8b 15 1f 43 20 00 	mov    0x20431f(%rip),%rdx        # 6054a8 <optarg@@GLIBC_2.2.5>
  401189:	be aa 2f 40 00       	mov    $0x402faa,%esi
  40118e:	48 8b 3d 1b 43 20 00 	mov    0x20431b(%rip),%rdi        # 6054b0 <stderr@@GLIBC_2.2.5>
  401195:	e8 46 fb ff ff       	callq  400ce0 <fprintf@plt>
  40119a:	b8 01 00 00 00       	mov    $0x1,%eax
  40119f:	e9 d6 00 00 00       	jmpq   40127a <main+0x1ba>
  4011a4:	ba 10 00 00 00       	mov    $0x10,%edx
  4011a9:	be 00 00 00 00       	mov    $0x0,%esi
  4011ae:	48 8b 3d f3 42 20 00 	mov    0x2042f3(%rip),%rdi        # 6054a8 <optarg@@GLIBC_2.2.5>
  4011b5:	e8 d6 fb ff ff       	callq  400d90 <strtoul@plt>
  4011ba:	41 89 c6             	mov    %eax,%r14d
  4011bd:	eb 42                	jmp    401201 <main+0x141>
  4011bf:	ba 0a 00 00 00       	mov    $0xa,%edx
  4011c4:	be 00 00 00 00       	mov    $0x0,%esi
  4011c9:	48 8b 3d d8 42 20 00 	mov    0x2042d8(%rip),%rdi        # 6054a8 <optarg@@GLIBC_2.2.5>
  4011d0:	e8 1b fb ff ff       	callq  400cf0 <strtol@plt>
  4011d5:	41 89 c5             	mov    %eax,%r13d
  4011d8:	eb 27                	jmp    401201 <main+0x141>
  4011da:	c7 05 a4 42 20 00 00 	movl   $0x0,0x2042a4(%rip)        # 605488 <notify>
  4011e1:	00 00 00 
  4011e4:	eb 1b                	jmp    401201 <main+0x141>
  4011e6:	40 0f be f6          	movsbl %sil,%esi
  4011ea:	bf c7 2f 40 00       	mov    $0x402fc7,%edi
  4011ef:	b8 00 00 00 00       	mov    $0x0,%eax
  4011f4:	e8 67 fa ff ff       	callq  400c60 <printf@plt>
  4011f9:	48 8b 3b             	mov    (%rbx),%rdi
  4011fc:	e8 ef fc ff ff       	callq  400ef0 <usage>
  401201:	48 89 ea             	mov    %rbp,%rdx
  401204:	48 89 de             	mov    %rbx,%rsi
  401207:	44 89 e7             	mov    %r12d,%edi
  40120a:	e8 71 fb ff ff       	callq  400d80 <getopt@plt>
  40120f:	89 c6                	mov    %eax,%esi
  401211:	3c ff                	cmp    $0xff,%al
  401213:	0f 85 2f ff ff ff    	jne    401148 <main+0x88>
  401219:	be 01 00 00 00       	mov    $0x1,%esi
  40121e:	44 89 ef             	mov    %r13d,%edi
  401221:	e8 4a fd ff ff       	callq  400f70 <initialize_target>
  401226:	83 3d bb 42 20 00 00 	cmpl   $0x0,0x2042bb(%rip)        # 6054e8 <is_checker>
  40122d:	74 25                	je     401254 <main+0x194>
  40122f:	44 3b 35 aa 42 20 00 	cmp    0x2042aa(%rip),%r14d        # 6054e0 <authkey>
  401236:	74 1c                	je     401254 <main+0x194>
  401238:	44 89 f6             	mov    %r14d,%esi
  40123b:	bf 00 2f 40 00       	mov    $0x402f00,%edi
  401240:	b8 00 00 00 00       	mov    $0x0,%eax
  401245:	e8 16 fa ff ff       	callq  400c60 <printf@plt>
  40124a:	b8 00 00 00 00       	mov    $0x0,%eax
  40124f:	e8 d7 08 00 00       	callq  401b2b <check_fail>
  401254:	8b 35 8a 42 20 00    	mov    0x20428a(%rip),%esi        # 6054e4 <cookie>
  40125a:	bf da 2f 40 00       	mov    $0x402fda,%edi
  40125f:	b8 00 00 00 00       	mov    $0x0,%eax
  401264:	e8 f7 f9 ff ff       	callq  400c60 <printf@plt>
  401269:	48 8b 3d 10 42 20 00 	mov    0x204210(%rip),%rdi        # 605480 <buf_offset>
  401270:	e8 e6 0c 00 00       	callq  401f5b <launch>
  401275:	b8 00 00 00 00       	mov    $0x0,%eax
  40127a:	5b                   	pop    %rbx
  40127b:	5d                   	pop    %rbp
  40127c:	41 5c                	pop    %r12
  40127e:	41 5d                	pop    %r13
  401280:	41 5e                	pop    %r14
  401282:	c3                   	retq   

0000000000401283 <scramble>:
  401283:	b8 00 00 00 00       	mov    $0x0,%eax
  401288:	eb 11                	jmp    40129b <scramble+0x18>
  40128a:	69 c8 98 f3 00 00    	imul   $0xf398,%eax,%ecx
  401290:	01 f9                	add    %edi,%ecx
  401292:	89 c2                	mov    %eax,%edx
  401294:	89 4c 94 d0          	mov    %ecx,-0x30(%rsp,%rdx,4)
  401298:	83 c0 01             	add    $0x1,%eax
  40129b:	83 f8 09             	cmp    $0x9,%eax
  40129e:	76 ea                	jbe    40128a <scramble+0x7>
  4012a0:	8b 44 24 e4          	mov    -0x1c(%rsp),%eax
  4012a4:	69 c0 26 02 00 00    	imul   $0x226,%eax,%eax
  4012aa:	89 44 24 e4          	mov    %eax,-0x1c(%rsp)
  4012ae:	8b 44 24 ec          	mov    -0x14(%rsp),%eax
  4012b2:	69 c0 02 2d 00 00    	imul   $0x2d02,%eax,%eax
  4012b8:	89 44 24 ec          	mov    %eax,-0x14(%rsp)
  4012bc:	8b 44 24 d4          	mov    -0x2c(%rsp),%eax
  4012c0:	69 c0 83 e8 00 00    	imul   $0xe883,%eax,%eax
  4012c6:	89 44 24 d4          	mov    %eax,-0x2c(%rsp)
  4012ca:	8b 44 24 ec          	mov    -0x14(%rsp),%eax
  4012ce:	69 c0 8b 26 00 00    	imul   $0x268b,%eax,%eax
  4012d4:	89 44 24 ec          	mov    %eax,-0x14(%rsp)
  4012d8:	8b 44 24 dc          	mov    -0x24(%rsp),%eax
  4012dc:	69 c0 f7 e5 00 00    	imul   $0xe5f7,%eax,%eax
  4012e2:	89 44 24 dc          	mov    %eax,-0x24(%rsp)
  4012e6:	8b 44 24 dc          	mov    -0x24(%rsp),%eax
  4012ea:	69 c0 20 7c 00 00    	imul   $0x7c20,%eax,%eax
  4012f0:	89 44 24 dc          	mov    %eax,-0x24(%rsp)
  4012f4:	8b 44 24 d4          	mov    -0x2c(%rsp),%eax
  4012f8:	69 c0 48 98 00 00    	imul   $0x9848,%eax,%eax
  4012fe:	89 44 24 d4          	mov    %eax,-0x2c(%rsp)
  401302:	8b 44 24 f0          	mov    -0x10(%rsp),%eax
  401306:	69 c0 c0 36 00 00    	imul   $0x36c0,%eax,%eax
  40130c:	89 44 24 f0          	mov    %eax,-0x10(%rsp)
  401310:	8b 44 24 f0          	mov    -0x10(%rsp),%eax
  401314:	69 c0 f7 66 00 00    	imul   $0x66f7,%eax,%eax
  40131a:	89 44 24 f0          	mov    %eax,-0x10(%rsp)
  40131e:	8b 44 24 e0          	mov    -0x20(%rsp),%eax
  401322:	69 c0 14 06 00 00    	imul   $0x614,%eax,%eax
  401328:	89 44 24 e0          	mov    %eax,-0x20(%rsp)
  40132c:	8b 44 24 d4          	mov    -0x2c(%rsp),%eax
  401330:	69 c0 ab e1 00 00    	imul   $0xe1ab,%eax,%eax
  401336:	89 44 24 d4          	mov    %eax,-0x2c(%rsp)
  40133a:	8b 44 24 f0          	mov    -0x10(%rsp),%eax
  40133e:	69 c0 62 c1 00 00    	imul   $0xc162,%eax,%eax
  401344:	89 44 24 f0          	mov    %eax,-0x10(%rsp)
  401348:	8b 44 24 dc          	mov    -0x24(%rsp),%eax
  40134c:	69 c0 f8 c0 00 00    	imul   $0xc0f8,%eax,%eax
  401352:	89 44 24 dc          	mov    %eax,-0x24(%rsp)
  401356:	8b 44 24 e8          	mov    -0x18(%rsp),%eax
  40135a:	69 c0 98 ff 00 00    	imul   $0xff98,%eax,%eax
  401360:	89 44 24 e8          	mov    %eax,-0x18(%rsp)
  401364:	8b 44 24 dc          	mov    -0x24(%rsp),%eax
  401368:	69 c0 7d 90 00 00    	imul   $0x907d,%eax,%eax
  40136e:	89 44 24 dc          	mov    %eax,-0x24(%rsp)
  401372:	8b 44 24 f0          	mov    -0x10(%rsp),%eax
  401376:	69 c0 0f 45 00 00    	imul   $0x450f,%eax,%eax
  40137c:	89 44 24 f0          	mov    %eax,-0x10(%rsp)
  401380:	8b 44 24 e4          	mov    -0x1c(%rsp),%eax
  401384:	69 c0 3c 27 00 00    	imul   $0x273c,%eax,%eax
  40138a:	89 44 24 e4          	mov    %eax,-0x1c(%rsp)
  40138e:	8b 44 24 e4          	mov    -0x1c(%rsp),%eax
  401392:	69 c0 6d 92 00 00    	imul   $0x926d,%eax,%eax
  401398:	89 44 24 e4          	mov    %eax,-0x1c(%rsp)
  40139c:	8b 44 24 d8          	mov    -0x28(%rsp),%eax
  4013a0:	69 c0 e9 a7 00 00    	imul   $0xa7e9,%eax,%eax
  4013a6:	89 44 24 d8          	mov    %eax,-0x28(%rsp)
  4013aa:	8b 44 24 d8          	mov    -0x28(%rsp),%eax
  4013ae:	69 c0 83 41 00 00    	imul   $0x4183,%eax,%eax
  4013b4:	89 44 24 d8          	mov    %eax,-0x28(%rsp)
  4013b8:	8b 44 24 dc          	mov    -0x24(%rsp),%eax
  4013bc:	69 c0 ad 0f 00 00    	imul   $0xfad,%eax,%eax
  4013c2:	89 44 24 dc          	mov    %eax,-0x24(%rsp)
  4013c6:	8b 44 24 d4          	mov    -0x2c(%rsp),%eax
  4013ca:	69 c0 6d 91 00 00    	imul   $0x916d,%eax,%eax
  4013d0:	89 44 24 d4          	mov    %eax,-0x2c(%rsp)
  4013d4:	8b 44 24 f0          	mov    -0x10(%rsp),%eax
  4013d8:	69 c0 30 f6 00 00    	imul   $0xf630,%eax,%eax
  4013de:	89 44 24 f0          	mov    %eax,-0x10(%rsp)
  4013e2:	8b 44 24 ec          	mov    -0x14(%rsp),%eax
  4013e6:	69 c0 2c 65 00 00    	imul   $0x652c,%eax,%eax
  4013ec:	89 44 24 ec          	mov    %eax,-0x14(%rsp)
  4013f0:	8b 44 24 f0          	mov    -0x10(%rsp),%eax
  4013f4:	69 c0 ea 2d 00 00    	imul   $0x2dea,%eax,%eax
  4013fa:	89 44 24 f0          	mov    %eax,-0x10(%rsp)
  4013fe:	8b 44 24 e4          	mov    -0x1c(%rsp),%eax
  401402:	69 c0 5f 38 00 00    	imul   $0x385f,%eax,%eax
  401408:	89 44 24 e4          	mov    %eax,-0x1c(%rsp)
  40140c:	8b 44 24 ec          	mov    -0x14(%rsp),%eax
  401410:	69 c0 95 d1 00 00    	imul   $0xd195,%eax,%eax
  401416:	89 44 24 ec          	mov    %eax,-0x14(%rsp)
  40141a:	8b 44 24 dc          	mov    -0x24(%rsp),%eax
  40141e:	69 c0 a1 14 00 00    	imul   $0x14a1,%eax,%eax
  401424:	89 44 24 dc          	mov    %eax,-0x24(%rsp)
  401428:	8b 44 24 d8          	mov    -0x28(%rsp),%eax
  40142c:	69 c0 bc 65 00 00    	imul   $0x65bc,%eax,%eax
  401432:	89 44 24 d8          	mov    %eax,-0x28(%rsp)
  401436:	8b 44 24 d0          	mov    -0x30(%rsp),%eax
  40143a:	69 c0 04 e4 00 00    	imul   $0xe404,%eax,%eax
  401440:	89 44 24 d0          	mov    %eax,-0x30(%rsp)
  401444:	8b 44 24 ec          	mov    -0x14(%rsp),%eax
  401448:	69 c0 41 90 00 00    	imul   $0x9041,%eax,%eax
  40144e:	89 44 24 ec          	mov    %eax,-0x14(%rsp)
  401452:	8b 44 24 f0          	mov    -0x10(%rsp),%eax
  401456:	69 c0 de 88 00 00    	imul   $0x88de,%eax,%eax
  40145c:	89 44 24 f0          	mov    %eax,-0x10(%rsp)
  401460:	8b 44 24 dc          	mov    -0x24(%rsp),%eax
  401464:	69 c0 24 9b 00 00    	imul   $0x9b24,%eax,%eax
  40146a:	89 44 24 dc          	mov    %eax,-0x24(%rsp)
  40146e:	8b 44 24 e4          	mov    -0x1c(%rsp),%eax
  401472:	69 c0 3d c7 00 00    	imul   $0xc73d,%eax,%eax
  401478:	89 44 24 e4          	mov    %eax,-0x1c(%rsp)
  40147c:	8b 44 24 d0          	mov    -0x30(%rsp),%eax
  401480:	69 c0 43 d4 00 00    	imul   $0xd443,%eax,%eax
  401486:	89 44 24 d0          	mov    %eax,-0x30(%rsp)
  40148a:	8b 44 24 d8          	mov    -0x28(%rsp),%eax
  40148e:	69 c0 ed d0 00 00    	imul   $0xd0ed,%eax,%eax
  401494:	89 44 24 d8          	mov    %eax,-0x28(%rsp)
  401498:	8b 44 24 ec          	mov    -0x14(%rsp),%eax
  40149c:	69 c0 63 c6 00 00    	imul   $0xc663,%eax,%eax
  4014a2:	89 44 24 ec          	mov    %eax,-0x14(%rsp)
  4014a6:	8b 44 24 d8          	mov    -0x28(%rsp),%eax
  4014aa:	69 c0 e6 8b 00 00    	imul   $0x8be6,%eax,%eax
  4014b0:	89 44 24 d8          	mov    %eax,-0x28(%rsp)
  4014b4:	8b 44 24 e8          	mov    -0x18(%rsp),%eax
  4014b8:	69 c0 89 2a 00 00    	imul   $0x2a89,%eax,%eax
  4014be:	89 44 24 e8          	mov    %eax,-0x18(%rsp)
  4014c2:	8b 44 24 dc          	mov    -0x24(%rsp),%eax
  4014c6:	69 c0 bb 19 00 00    	imul   $0x19bb,%eax,%eax
  4014cc:	89 44 24 dc          	mov    %eax,-0x24(%rsp)
  4014d0:	8b 44 24 ec          	mov    -0x14(%rsp),%eax
  4014d4:	69 c0 52 5c 00 00    	imul   $0x5c52,%eax,%eax
  4014da:	89 44 24 ec          	mov    %eax,-0x14(%rsp)
  4014de:	8b 44 24 ec          	mov    -0x14(%rsp),%eax
  4014e2:	69 c0 08 68 00 00    	imul   $0x6808,%eax,%eax
  4014e8:	89 44 24 ec          	mov    %eax,-0x14(%rsp)
  4014ec:	8b 44 24 dc          	mov    -0x24(%rsp),%eax
  4014f0:	69 c0 dc 4b 00 00    	imul   $0x4bdc,%eax,%eax
  4014f6:	89 44 24 dc          	mov    %eax,-0x24(%rsp)
  4014fa:	8b 44 24 ec          	mov    -0x14(%rsp),%eax
  4014fe:	69 c0 75 c0 00 00    	imul   $0xc075,%eax,%eax
  401504:	89 44 24 ec          	mov    %eax,-0x14(%rsp)
  401508:	8b 44 24 d4          	mov    -0x2c(%rsp),%eax
  40150c:	69 c0 e3 90 00 00    	imul   $0x90e3,%eax,%eax
  401512:	89 44 24 d4          	mov    %eax,-0x2c(%rsp)
  401516:	8b 44 24 ec          	mov    -0x14(%rsp),%eax
  40151a:	69 c0 d3 a7 00 00    	imul   $0xa7d3,%eax,%eax
  401520:	89 44 24 ec          	mov    %eax,-0x14(%rsp)
  401524:	8b 44 24 ec          	mov    -0x14(%rsp),%eax
  401528:	69 c0 8c cd 00 00    	imul   $0xcd8c,%eax,%eax
  40152e:	89 44 24 ec          	mov    %eax,-0x14(%rsp)
  401532:	8b 44 24 e8          	mov    -0x18(%rsp),%eax
  401536:	69 c0 a3 d8 00 00    	imul   $0xd8a3,%eax,%eax
  40153c:	89 44 24 e8          	mov    %eax,-0x18(%rsp)
  401540:	8b 44 24 d8          	mov    -0x28(%rsp),%eax
  401544:	69 c0 fc 4b 00 00    	imul   $0x4bfc,%eax,%eax
  40154a:	89 44 24 d8          	mov    %eax,-0x28(%rsp)
  40154e:	8b 44 24 f4          	mov    -0xc(%rsp),%eax
  401552:	69 c0 be ab 00 00    	imul   $0xabbe,%eax,%eax
  401558:	89 44 24 f4          	mov    %eax,-0xc(%rsp)
  40155c:	8b 44 24 d4          	mov    -0x2c(%rsp),%eax
  401560:	69 c0 a1 a8 00 00    	imul   $0xa8a1,%eax,%eax
  401566:	89 44 24 d4          	mov    %eax,-0x2c(%rsp)
  40156a:	8b 44 24 f0          	mov    -0x10(%rsp),%eax
  40156e:	69 c0 2f 04 00 00    	imul   $0x42f,%eax,%eax
  401574:	89 44 24 f0          	mov    %eax,-0x10(%rsp)
  401578:	8b 44 24 ec          	mov    -0x14(%rsp),%eax
  40157c:	69 c0 06 df 00 00    	imul   $0xdf06,%eax,%eax
  401582:	89 44 24 ec          	mov    %eax,-0x14(%rsp)
  401586:	8b 44 24 e4          	mov    -0x1c(%rsp),%eax
  40158a:	69 c0 98 2b 00 00    	imul   $0x2b98,%eax,%eax
  401590:	89 44 24 e4          	mov    %eax,-0x1c(%rsp)
  401594:	8b 44 24 e0          	mov    -0x20(%rsp),%eax
  401598:	69 c0 27 81 00 00    	imul   $0x8127,%eax,%eax
  40159e:	89 44 24 e0          	mov    %eax,-0x20(%rsp)
  4015a2:	8b 44 24 f4          	mov    -0xc(%rsp),%eax
  4015a6:	69 c0 02 62 00 00    	imul   $0x6202,%eax,%eax
  4015ac:	89 44 24 f4          	mov    %eax,-0xc(%rsp)
  4015b0:	8b 44 24 d0          	mov    -0x30(%rsp),%eax
  4015b4:	69 c0 6f 97 00 00    	imul   $0x976f,%eax,%eax
  4015ba:	89 44 24 d0          	mov    %eax,-0x30(%rsp)
  4015be:	8b 44 24 e4          	mov    -0x1c(%rsp),%eax
  4015c2:	69 c0 61 0b 00 00    	imul   $0xb61,%eax,%eax
  4015c8:	89 44 24 e4          	mov    %eax,-0x1c(%rsp)
  4015cc:	8b 44 24 f0          	mov    -0x10(%rsp),%eax
  4015d0:	69 c0 b4 46 00 00    	imul   $0x46b4,%eax,%eax
  4015d6:	89 44 24 f0          	mov    %eax,-0x10(%rsp)
  4015da:	8b 44 24 dc          	mov    -0x24(%rsp),%eax
  4015de:	69 c0 e4 94 00 00    	imul   $0x94e4,%eax,%eax
  4015e4:	89 44 24 dc          	mov    %eax,-0x24(%rsp)
  4015e8:	8b 44 24 d4          	mov    -0x2c(%rsp),%eax
  4015ec:	69 c0 4f 70 00 00    	imul   $0x704f,%eax,%eax
  4015f2:	89 44 24 d4          	mov    %eax,-0x2c(%rsp)
  4015f6:	8b 44 24 dc          	mov    -0x24(%rsp),%eax
  4015fa:	69 c0 bc f8 00 00    	imul   $0xf8bc,%eax,%eax
  401600:	89 44 24 dc          	mov    %eax,-0x24(%rsp)
  401604:	8b 44 24 ec          	mov    -0x14(%rsp),%eax
  401608:	69 c0 68 6d 00 00    	imul   $0x6d68,%eax,%eax
  40160e:	89 44 24 ec          	mov    %eax,-0x14(%rsp)
  401612:	8b 44 24 d0          	mov    -0x30(%rsp),%eax
  401616:	69 c0 8b a6 00 00    	imul   $0xa68b,%eax,%eax
  40161c:	89 44 24 d0          	mov    %eax,-0x30(%rsp)
  401620:	8b 44 24 dc          	mov    -0x24(%rsp),%eax
  401624:	69 c0 40 71 00 00    	imul   $0x7140,%eax,%eax
  40162a:	89 44 24 dc          	mov    %eax,-0x24(%rsp)
  40162e:	8b 44 24 e4          	mov    -0x1c(%rsp),%eax
  401632:	69 c0 a3 d9 00 00    	imul   $0xd9a3,%eax,%eax
  401638:	89 44 24 e4          	mov    %eax,-0x1c(%rsp)
  40163c:	8b 44 24 dc          	mov    -0x24(%rsp),%eax
  401640:	69 c0 f5 ce 00 00    	imul   $0xcef5,%eax,%eax
  401646:	89 44 24 dc          	mov    %eax,-0x24(%rsp)
  40164a:	8b 44 24 e4          	mov    -0x1c(%rsp),%eax
  40164e:	69 c0 e5 88 00 00    	imul   $0x88e5,%eax,%eax
  401654:	89 44 24 e4          	mov    %eax,-0x1c(%rsp)
  401658:	8b 44 24 f0          	mov    -0x10(%rsp),%eax
  40165c:	69 c0 e8 6d 00 00    	imul   $0x6de8,%eax,%eax
  401662:	89 44 24 f0          	mov    %eax,-0x10(%rsp)
  401666:	8b 44 24 e8          	mov    -0x18(%rsp),%eax
  40166a:	69 c0 8b b7 00 00    	imul   $0xb78b,%eax,%eax
  401670:	89 44 24 e8          	mov    %eax,-0x18(%rsp)
  401674:	8b 44 24 d4          	mov    -0x2c(%rsp),%eax
  401678:	69 c0 d2 f9 00 00    	imul   $0xf9d2,%eax,%eax
  40167e:	89 44 24 d4          	mov    %eax,-0x2c(%rsp)
  401682:	8b 44 24 e4          	mov    -0x1c(%rsp),%eax
  401686:	69 c0 89 cc 00 00    	imul   $0xcc89,%eax,%eax
  40168c:	89 44 24 e4          	mov    %eax,-0x1c(%rsp)
  401690:	8b 44 24 e0          	mov    -0x20(%rsp),%eax
  401694:	69 c0 98 e3 00 00    	imul   $0xe398,%eax,%eax
  40169a:	89 44 24 e0          	mov    %eax,-0x20(%rsp)
  40169e:	8b 44 24 f0          	mov    -0x10(%rsp),%eax
  4016a2:	69 c0 8c 74 00 00    	imul   $0x748c,%eax,%eax
  4016a8:	89 44 24 f0          	mov    %eax,-0x10(%rsp)
  4016ac:	8b 44 24 ec          	mov    -0x14(%rsp),%eax
  4016b0:	69 c0 c0 a3 00 00    	imul   $0xa3c0,%eax,%eax
  4016b6:	89 44 24 ec          	mov    %eax,-0x14(%rsp)
  4016ba:	8b 44 24 e4          	mov    -0x1c(%rsp),%eax
  4016be:	69 c0 e3 01 00 00    	imul   $0x1e3,%eax,%eax
  4016c4:	89 44 24 e4          	mov    %eax,-0x1c(%rsp)
  4016c8:	8b 44 24 e0          	mov    -0x20(%rsp),%eax
  4016cc:	69 c0 28 46 00 00    	imul   $0x4628,%eax,%eax
  4016d2:	89 44 24 e0          	mov    %eax,-0x20(%rsp)
  4016d6:	8b 44 24 f4          	mov    -0xc(%rsp),%eax
  4016da:	69 c0 ea 51 00 00    	imul   $0x51ea,%eax,%eax
  4016e0:	89 44 24 f4          	mov    %eax,-0xc(%rsp)
  4016e4:	8b 44 24 d0          	mov    -0x30(%rsp),%eax
  4016e8:	69 c0 ff cb 00 00    	imul   $0xcbff,%eax,%eax
  4016ee:	89 44 24 d0          	mov    %eax,-0x30(%rsp)
  4016f2:	8b 44 24 d4          	mov    -0x2c(%rsp),%eax
  4016f6:	69 c0 f5 6c 00 00    	imul   $0x6cf5,%eax,%eax
  4016fc:	89 44 24 d4          	mov    %eax,-0x2c(%rsp)
  401700:	8b 44 24 dc          	mov    -0x24(%rsp),%eax
  401704:	69 c0 bf 4a 00 00    	imul   $0x4abf,%eax,%eax
  40170a:	89 44 24 dc          	mov    %eax,-0x24(%rsp)
  40170e:	8b 44 24 d0          	mov    -0x30(%rsp),%eax
  401712:	69 c0 20 57 00 00    	imul   $0x5720,%eax,%eax
  401718:	89 44 24 d0          	mov    %eax,-0x30(%rsp)
  40171c:	8b 44 24 d8          	mov    -0x28(%rsp),%eax
  401720:	69 c0 6c 24 00 00    	imul   $0x246c,%eax,%eax
  401726:	89 44 24 d8          	mov    %eax,-0x28(%rsp)
  40172a:	8b 44 24 d0          	mov    -0x30(%rsp),%eax
  40172e:	69 c0 b0 c7 00 00    	imul   $0xc7b0,%eax,%eax
  401734:	89 44 24 d0          	mov    %eax,-0x30(%rsp)
  401738:	8b 44 24 f4          	mov    -0xc(%rsp),%eax
  40173c:	69 c0 84 94 00 00    	imul   $0x9484,%eax,%eax
  401742:	89 44 24 f4          	mov    %eax,-0xc(%rsp)
  401746:	8b 44 24 e0          	mov    -0x20(%rsp),%eax
  40174a:	69 c0 64 81 00 00    	imul   $0x8164,%eax,%eax
  401750:	89 44 24 e0          	mov    %eax,-0x20(%rsp)
  401754:	8b 44 24 e0          	mov    -0x20(%rsp),%eax
  401758:	69 c0 c8 98 00 00    	imul   $0x98c8,%eax,%eax
  40175e:	89 44 24 e0          	mov    %eax,-0x20(%rsp)
  401762:	8b 44 24 e0          	mov    -0x20(%rsp),%eax
  401766:	69 c0 97 1f 00 00    	imul   $0x1f97,%eax,%eax
  40176c:	89 44 24 e0          	mov    %eax,-0x20(%rsp)
  401770:	8b 44 24 dc          	mov    -0x24(%rsp),%eax
  401774:	69 c0 d8 25 00 00    	imul   $0x25d8,%eax,%eax
  40177a:	89 44 24 dc          	mov    %eax,-0x24(%rsp)
  40177e:	8b 44 24 dc          	mov    -0x24(%rsp),%eax
  401782:	69 c0 ac a6 00 00    	imul   $0xa6ac,%eax,%eax
  401788:	89 44 24 dc          	mov    %eax,-0x24(%rsp)
  40178c:	8b 44 24 e8          	mov    -0x18(%rsp),%eax
  401790:	69 c0 94 9d 00 00    	imul   $0x9d94,%eax,%eax
  401796:	89 44 24 e8          	mov    %eax,-0x18(%rsp)
  40179a:	8b 44 24 d4          	mov    -0x2c(%rsp),%eax
  40179e:	69 c0 a8 dd 00 00    	imul   $0xdda8,%eax,%eax
  4017a4:	89 44 24 d4          	mov    %eax,-0x2c(%rsp)
  4017a8:	8b 44 24 d4          	mov    -0x2c(%rsp),%eax
  4017ac:	69 c0 30 a3 00 00    	imul   $0xa330,%eax,%eax
  4017b2:	89 44 24 d4          	mov    %eax,-0x2c(%rsp)
  4017b6:	8b 44 24 dc          	mov    -0x24(%rsp),%eax
  4017ba:	69 c0 4e 97 00 00    	imul   $0x974e,%eax,%eax
  4017c0:	89 44 24 dc          	mov    %eax,-0x24(%rsp)
  4017c4:	8b 44 24 dc          	mov    -0x24(%rsp),%eax
  4017c8:	69 c0 09 28 00 00    	imul   $0x2809,%eax,%eax
  4017ce:	89 44 24 dc          	mov    %eax,-0x24(%rsp)
  4017d2:	8b 44 24 e8          	mov    -0x18(%rsp),%eax
  4017d6:	69 c0 6f ac 00 00    	imul   $0xac6f,%eax,%eax
  4017dc:	89 44 24 e8          	mov    %eax,-0x18(%rsp)
  4017e0:	ba 00 00 00 00       	mov    $0x0,%edx
  4017e5:	b8 00 00 00 00       	mov    $0x0,%eax
  4017ea:	eb 0b                	jmp    4017f7 <scramble+0x574>
  4017ec:	89 d1                	mov    %edx,%ecx
  4017ee:	8b 4c 8c d0          	mov    -0x30(%rsp,%rcx,4),%ecx
  4017f2:	01 c8                	add    %ecx,%eax
  4017f4:	83 c2 01             	add    $0x1,%edx
  4017f7:	83 fa 09             	cmp    $0x9,%edx
  4017fa:	76 f0                	jbe    4017ec <scramble+0x569>
  4017fc:	f3 c3                	repz retq 

00000000004017fe <getbuf>:
  4017fe:	48 83 ec 18          	sub    $0x18,%rsp
  401802:	48 89 e7             	mov    %rsp,%rdi
  401805:	e8 50 03 00 00       	callq  401b5a <Gets>
  40180a:	b8 01 00 00 00       	mov    $0x1,%eax
  40180f:	48 83 c4 18          	add    $0x18,%rsp
  401813:	c3                   	retq   

0000000000401814 <touch1>:
  401814:	48 83 ec 08          	sub    $0x8,%rsp
  401818:	c7 05 ba 3c 20 00 01 	movl   $0x1,0x203cba(%rip)        # 6054dc <vlevel>
  40181f:	00 00 00 
  401822:	bf ad 30 40 00       	mov    $0x4030ad,%edi
  401827:	e8 04 f4 ff ff       	callq  400c30 <puts@plt>
  40182c:	bf 01 00 00 00       	mov    $0x1,%edi
  401831:	e8 13 05 00 00       	callq  401d49 <validate>
  401836:	bf 00 00 00 00       	mov    $0x0,%edi
  40183b:	e8 80 f5 ff ff       	callq  400dc0 <exit@plt>

0000000000401840 <touch2>:
  401840:	48 83 ec 08          	sub    $0x8,%rsp
  401844:	89 fe                	mov    %edi,%esi
  401846:	c7 05 8c 3c 20 00 02 	movl   $0x2,0x203c8c(%rip)        # 6054dc <vlevel>
  40184d:	00 00 00 
  401850:	3b 3d 8e 3c 20 00    	cmp    0x203c8e(%rip),%edi        # 6054e4 <cookie>
  401856:	75 1b                	jne    401873 <touch2+0x33>
  401858:	bf d0 30 40 00       	mov    $0x4030d0,%edi
  40185d:	b8 00 00 00 00       	mov    $0x0,%eax
  401862:	e8 f9 f3 ff ff       	callq  400c60 <printf@plt>
  401867:	bf 02 00 00 00       	mov    $0x2,%edi
  40186c:	e8 d8 04 00 00       	callq  401d49 <validate>
  401871:	eb 19                	jmp    40188c <touch2+0x4c>
  401873:	bf f8 30 40 00       	mov    $0x4030f8,%edi
  401878:	b8 00 00 00 00       	mov    $0x0,%eax
  40187d:	e8 de f3 ff ff       	callq  400c60 <printf@plt>
  401882:	bf 02 00 00 00       	mov    $0x2,%edi
  401887:	e8 6f 05 00 00       	callq  401dfb <fail>
  40188c:	bf 00 00 00 00       	mov    $0x0,%edi
  401891:	e8 2a f5 ff ff       	callq  400dc0 <exit@plt>

0000000000401896 <hexmatch>:
  401896:	41 54                	push   %r12
  401898:	55                   	push   %rbp
  401899:	53                   	push   %rbx
  40189a:	48 83 ec 70          	sub    $0x70,%rsp
  40189e:	41 89 fc             	mov    %edi,%r12d
  4018a1:	48 89 f5             	mov    %rsi,%rbp
  4018a4:	e8 77 f4 ff ff       	callq  400d20 <random@plt>
  4018a9:	48 89 c1             	mov    %rax,%rcx
  4018ac:	48 ba 0b d7 a3 70 3d 	movabs $0xa3d70a3d70a3d70b,%rdx
  4018b3:	0a d7 a3 
  4018b6:	48 f7 ea             	imul   %rdx
  4018b9:	48 8d 04 0a          	lea    (%rdx,%rcx,1),%rax
  4018bd:	48 c1 f8 06          	sar    $0x6,%rax
  4018c1:	48 89 ce             	mov    %rcx,%rsi
  4018c4:	48 c1 fe 3f          	sar    $0x3f,%rsi
  4018c8:	48 29 f0             	sub    %rsi,%rax
  4018cb:	48 8d 04 80          	lea    (%rax,%rax,4),%rax
  4018cf:	48 8d 04 80          	lea    (%rax,%rax,4),%rax
  4018d3:	48 c1 e0 02          	shl    $0x2,%rax
  4018d7:	48 29 c1             	sub    %rax,%rcx
  4018da:	48 8d 1c 0c          	lea    (%rsp,%rcx,1),%rbx
  4018de:	44 89 e2             	mov    %r12d,%edx
  4018e1:	be ca 30 40 00       	mov    $0x4030ca,%esi
  4018e6:	48 89 df             	mov    %rbx,%rdi
  4018e9:	b8 00 00 00 00       	mov    $0x0,%eax
  4018ee:	e8 bd f4 ff ff       	callq  400db0 <sprintf@plt>
  4018f3:	ba 09 00 00 00       	mov    $0x9,%edx
  4018f8:	48 89 de             	mov    %rbx,%rsi
  4018fb:	48 89 ef             	mov    %rbp,%rdi
  4018fe:	e8 0d f3 ff ff       	callq  400c10 <strncmp@plt>
  401903:	85 c0                	test   %eax,%eax
  401905:	0f 94 c0             	sete   %al
  401908:	0f b6 c0             	movzbl %al,%eax
  40190b:	48 83 c4 70          	add    $0x70,%rsp
  40190f:	5b                   	pop    %rbx
  401910:	5d                   	pop    %rbp
  401911:	41 5c                	pop    %r12
  401913:	c3                   	retq   

0000000000401914 <touch3>:
  401914:	53                   	push   %rbx
  401915:	48 89 fb             	mov    %rdi,%rbx
  401918:	c7 05 ba 3b 20 00 03 	movl   $0x3,0x203bba(%rip)        # 6054dc <vlevel>
  40191f:	00 00 00 
  401922:	48 89 fe             	mov    %rdi,%rsi
  401925:	8b 3d b9 3b 20 00    	mov    0x203bb9(%rip),%edi        # 6054e4 <cookie>
  40192b:	e8 66 ff ff ff       	callq  401896 <hexmatch>
  401930:	85 c0                	test   %eax,%eax
  401932:	74 1e                	je     401952 <touch3+0x3e>
  401934:	48 89 de             	mov    %rbx,%rsi
  401937:	bf 20 31 40 00       	mov    $0x403120,%edi
  40193c:	b8 00 00 00 00       	mov    $0x0,%eax
  401941:	e8 1a f3 ff ff       	callq  400c60 <printf@plt>
  401946:	bf 03 00 00 00       	mov    $0x3,%edi
  40194b:	e8 f9 03 00 00       	callq  401d49 <validate>
  401950:	eb 1c                	jmp    40196e <touch3+0x5a>
  401952:	48 89 de             	mov    %rbx,%rsi
  401955:	bf 48 31 40 00       	mov    $0x403148,%edi
  40195a:	b8 00 00 00 00       	mov    $0x0,%eax
  40195f:	e8 fc f2 ff ff       	callq  400c60 <printf@plt>
  401964:	bf 03 00 00 00       	mov    $0x3,%edi
  401969:	e8 8d 04 00 00       	callq  401dfb <fail>
  40196e:	bf 00 00 00 00       	mov    $0x0,%edi
  401973:	e8 48 f4 ff ff       	callq  400dc0 <exit@plt>

0000000000401978 <test>:
  401978:	48 83 ec 08          	sub    $0x8,%rsp
  40197c:	b8 00 00 00 00       	mov    $0x0,%eax
  401981:	e8 78 fe ff ff       	callq  4017fe <getbuf>
  401986:	89 c6                	mov    %eax,%esi
  401988:	bf 70 31 40 00       	mov    $0x403170,%edi
  40198d:	b8 00 00 00 00       	mov    $0x0,%eax
  401992:	e8 c9 f2 ff ff       	callq  400c60 <printf@plt>
  401997:	48 83 c4 08          	add    $0x8,%rsp
  40199b:	c3                   	retq   

000000000040199c <start_farm>:
  40199c:	b8 01 00 00 00       	mov    $0x1,%eax
  4019a1:	c3                   	retq   

00000000004019a2 <getval_294>:
  4019a2:	b8 58 94 c3 95       	mov    $0x95c39458,%eax
  4019a7:	c3                   	retq   

00000000004019a8 <getval_220>:
  4019a8:	b8 24 ca e6 58       	mov    $0x58e6ca24,%eax
  4019ad:	c3                   	retq   

00000000004019ae <addval_349>:
  4019ae:	8d 87 58 90 c3 72    	lea    0x72c39058(%rdi),%eax
  4019b4:	c3                   	retq   

00000000004019b5 <addval_355>:
  4019b5:	8d 87 4c 89 c7 c3    	lea    -0x3c3876b4(%rdi),%eax
  4019bb:	c3                   	retq   

00000000004019bc <getval_251>:
  4019bc:	b8 58 90 c2 40       	mov    $0x40c29058,%eax
  4019c1:	c3                   	retq   

00000000004019c2 <getval_319>:
  4019c2:	b8 48 89 c7 c3       	mov    $0xc3c78948,%eax
  4019c7:	c3                   	retq   

00000000004019c8 <getval_281>:
  4019c8:	b8 0f 48 89 c7       	mov    $0xc789480f,%eax
  4019cd:	c3                   	retq   

00000000004019ce <addval_465>:
  4019ce:	8d 87 8f 49 89 c7    	lea    -0x3876b671(%rdi),%eax
  4019d4:	c3                   	retq   

00000000004019d5 <mid_farm>:
  4019d5:	b8 01 00 00 00       	mov    $0x1,%eax
  4019da:	c3                   	retq   

00000000004019db <add_xy>:
  4019db:	48 8d 04 37          	lea    (%rdi,%rsi,1),%rax
  4019df:	c3                   	retq   

00000000004019e0 <getval_477>:
  4019e0:	b8 89 d1 20 c0       	mov    $0xc020d189,%eax
  4019e5:	c3                   	retq   

00000000004019e6 <setval_327>:
  4019e6:	c7 07 81 ce 08 db    	movl   $0xdb08ce81,(%rdi)
  4019ec:	c3                   	retq   

00000000004019ed <addval_336>:
  4019ed:	8d 87 d8 91 89 ce    	lea    -0x31766e28(%rdi),%eax
  4019f3:	c3                   	retq   

00000000004019f4 <setval_136>:
  4019f4:	c7 07 48 99 e0 c3    	movl   $0xc3e09948,(%rdi)
  4019fa:	c3                   	retq   

00000000004019fb <addval_269>:
  4019fb:	8d 87 5c 48 89 e0    	lea    -0x1f76b7a4(%rdi),%eax
  401a01:	c3                   	retq   

0000000000401a02 <addval_103>:
  401a02:	8d 87 48 89 e0 c7    	lea    -0x381f76b8(%rdi),%eax
  401a08:	c3                   	retq   

0000000000401a09 <addval_418>:
  401a09:	8d 87 89 ce 90 c3    	lea    -0x3c6f3177(%rdi),%eax
  401a0f:	c3                   	retq   

0000000000401a10 <getval_489>:
  401a10:	b8 82 89 ce 94       	mov    $0x94ce8982,%eax
  401a15:	c3                   	retq   

0000000000401a16 <addval_316>:
  401a16:	8d 87 48 89 e0 c3    	lea    -0x3c1f76b8(%rdi),%eax
  401a1c:	c3                   	retq   

0000000000401a1d <getval_274>:
  401a1d:	b8 48 89 e0 91       	mov    $0x91e08948,%eax
  401a22:	c3                   	retq   

0000000000401a23 <getval_151>:
  401a23:	b8 89 d1 91 c3       	mov    $0xc391d189,%eax
  401a28:	c3                   	retq   

0000000000401a29 <setval_278>:
  401a29:	c7 07 89 d1 18 d2    	movl   $0xd218d189,(%rdi)
  401a2f:	c3                   	retq   

0000000000401a30 <addval_457>:
  401a30:	8d 87 a9 d1 20 d2    	lea    -0x2ddf2e57(%rdi),%eax
  401a36:	c3                   	retq   

0000000000401a37 <setval_277>:
  401a37:	c7 07 89 c2 20 c0    	movl   $0xc020c289,(%rdi)
  401a3d:	c3                   	retq   

0000000000401a3e <addval_192>:
  401a3e:	8d 87 48 89 e0 c7    	lea    -0x381f76b8(%rdi),%eax
  401a44:	c3                   	retq   

0000000000401a45 <setval_272>:
  401a45:	c7 07 48 89 e0 94    	movl   $0x94e08948,(%rdi)
  401a4b:	c3                   	retq   

0000000000401a4c <getval_423>:
  401a4c:	b8 89 ce 60 db       	mov    $0xdb60ce89,%eax
  401a51:	c3                   	retq   

0000000000401a52 <addval_383>:
  401a52:	8d 87 99 c2 20 c0    	lea    -0x3fdf3d67(%rdi),%eax
  401a58:	c3                   	retq   

0000000000401a59 <getval_497>:
  401a59:	b8 65 89 ce c2       	mov    $0xc2ce8965,%eax
  401a5e:	c3                   	retq   

0000000000401a5f <getval_492>:
  401a5f:	b8 30 89 ce c7       	mov    $0xc7ce8930,%eax
  401a64:	c3                   	retq   

0000000000401a65 <setval_447>:
  401a65:	c7 07 89 d1 78 d2    	movl   $0xd278d189,(%rdi)
  401a6b:	c3                   	retq   

0000000000401a6c <addval_384>:
  401a6c:	8d 87 88 c2 20 c9    	lea    -0x36df3d78(%rdi),%eax
  401a72:	c3                   	retq   

0000000000401a73 <addval_283>:
  401a73:	8d 87 89 c2 94 90    	lea    -0x6f6b3d77(%rdi),%eax
  401a79:	c3                   	retq   

0000000000401a7a <addval_458>:
  401a7a:	8d 87 89 c2 08 c9    	lea    -0x36f73d77(%rdi),%eax
  401a80:	c3                   	retq   

0000000000401a81 <setval_254>:
  401a81:	c7 07 9c 89 d1 90    	movl   $0x90d1899c,(%rdi)
  401a87:	c3                   	retq   

0000000000401a88 <addval_331>:
  401a88:	8d 87 88 c2 20 db    	lea    -0x24df3d78(%rdi),%eax
  401a8e:	c3                   	retq   

0000000000401a8f <addval_287>:
  401a8f:	8d 87 a9 d1 90 c3    	lea    -0x3c6f2e57(%rdi),%eax
  401a95:	c3                   	retq   

0000000000401a96 <getval_167>:
  401a96:	b8 8d c2 38 d2       	mov    $0xd238c28d,%eax
  401a9b:	c3                   	retq   

0000000000401a9c <getval_250>:
  401a9c:	b8 89 c2 a4 db       	mov    $0xdba4c289,%eax
  401aa1:	c3                   	retq   

0000000000401aa2 <getval_140>:
  401aa2:	b8 8b d1 c3 ab       	mov    $0xabc3d18b,%eax
  401aa7:	c3                   	retq   

0000000000401aa8 <setval_236>:
  401aa8:	c7 07 09 ce 84 c9    	movl   $0xc984ce09,(%rdi)
  401aae:	c3                   	retq   

0000000000401aaf <getval_356>:
  401aaf:	b8 48 89 e0 92       	mov    $0x92e08948,%eax
  401ab4:	c3                   	retq   

0000000000401ab5 <end_farm>:
  401ab5:	b8 01 00 00 00       	mov    $0x1,%eax
  401aba:	c3                   	retq   
  401abb:	0f 1f 44 00 00       	nopl   0x0(%rax,%rax,1)

0000000000401ac0 <save_char>:
  401ac0:	8b 05 3e 46 20 00    	mov    0x20463e(%rip),%eax        # 606104 <gets_cnt>
  401ac6:	3d ff 03 00 00       	cmp    $0x3ff,%eax
  401acb:	7f 49                	jg     401b16 <save_char+0x56>
  401acd:	8d 14 40             	lea    (%rax,%rax,2),%edx
  401ad0:	89 f9                	mov    %edi,%ecx
  401ad2:	c0 e9 04             	shr    $0x4,%cl
  401ad5:	83 e1 0f             	and    $0xf,%ecx
  401ad8:	0f b6 b1 90 34 40 00 	movzbl 0x403490(%rcx),%esi
  401adf:	48 63 ca             	movslq %edx,%rcx
  401ae2:	40 88 b1 00 55 60 00 	mov    %sil,0x605500(%rcx)
  401ae9:	8d 4a 01             	lea    0x1(%rdx),%ecx
  401aec:	83 e7 0f             	and    $0xf,%edi
  401aef:	0f b6 b7 90 34 40 00 	movzbl 0x403490(%rdi),%esi
  401af6:	48 63 c9             	movslq %ecx,%rcx
  401af9:	40 88 b1 00 55 60 00 	mov    %sil,0x605500(%rcx)
  401b00:	83 c2 02             	add    $0x2,%edx
  401b03:	48 63 d2             	movslq %edx,%rdx
  401b06:	c6 82 00 55 60 00 20 	movb   $0x20,0x605500(%rdx)
  401b0d:	83 c0 01             	add    $0x1,%eax
  401b10:	89 05 ee 45 20 00    	mov    %eax,0x2045ee(%rip)        # 606104 <gets_cnt>
  401b16:	f3 c3                	repz retq 

0000000000401b18 <save_term>:
  401b18:	8b 05 e6 45 20 00    	mov    0x2045e6(%rip),%eax        # 606104 <gets_cnt>
  401b1e:	8d 04 40             	lea    (%rax,%rax,2),%eax
  401b21:	48 98                	cltq   
  401b23:	c6 80 00 55 60 00 00 	movb   $0x0,0x605500(%rax)
  401b2a:	c3                   	retq   

0000000000401b2b <check_fail>:
  401b2b:	48 83 ec 08          	sub    $0x8,%rsp
  401b2f:	0f be 35 d2 45 20 00 	movsbl 0x2045d2(%rip),%esi        # 606108 <target_prefix>
  401b36:	b9 00 55 60 00       	mov    $0x605500,%ecx
  401b3b:	8b 15 97 39 20 00    	mov    0x203997(%rip),%edx        # 6054d8 <check_level>
  401b41:	bf 93 31 40 00       	mov    $0x403193,%edi
  401b46:	b8 00 00 00 00       	mov    $0x0,%eax
  401b4b:	e8 10 f1 ff ff       	callq  400c60 <printf@plt>
  401b50:	bf 01 00 00 00       	mov    $0x1,%edi
  401b55:	e8 66 f2 ff ff       	callq  400dc0 <exit@plt>

0000000000401b5a <Gets>:
  401b5a:	41 54                	push   %r12
  401b5c:	55                   	push   %rbp
  401b5d:	53                   	push   %rbx
  401b5e:	49 89 fc             	mov    %rdi,%r12
  401b61:	c7 05 99 45 20 00 00 	movl   $0x0,0x204599(%rip)        # 606104 <gets_cnt>
  401b68:	00 00 00 
  401b6b:	48 89 fb             	mov    %rdi,%rbx
  401b6e:	eb 11                	jmp    401b81 <Gets+0x27>
  401b70:	48 8d 6b 01          	lea    0x1(%rbx),%rbp
  401b74:	88 03                	mov    %al,(%rbx)
  401b76:	0f b6 f8             	movzbl %al,%edi
  401b79:	e8 42 ff ff ff       	callq  401ac0 <save_char>
  401b7e:	48 89 eb             	mov    %rbp,%rbx
  401b81:	48 8b 3d 48 39 20 00 	mov    0x203948(%rip),%rdi        # 6054d0 <infile>
  401b88:	e8 a3 f1 ff ff       	callq  400d30 <_IO_getc@plt>
  401b8d:	83 f8 ff             	cmp    $0xffffffff,%eax
  401b90:	74 05                	je     401b97 <Gets+0x3d>
  401b92:	83 f8 0a             	cmp    $0xa,%eax
  401b95:	75 d9                	jne    401b70 <Gets+0x16>
  401b97:	c6 03 00             	movb   $0x0,(%rbx)
  401b9a:	b8 00 00 00 00       	mov    $0x0,%eax
  401b9f:	e8 74 ff ff ff       	callq  401b18 <save_term>
  401ba4:	4c 89 e0             	mov    %r12,%rax
  401ba7:	5b                   	pop    %rbx
  401ba8:	5d                   	pop    %rbp
  401ba9:	41 5c                	pop    %r12
  401bab:	c3                   	retq   

0000000000401bac <notify_server>:
  401bac:	83 3d 35 39 20 00 00 	cmpl   $0x0,0x203935(%rip)        # 6054e8 <is_checker>
  401bb3:	0f 85 8e 01 00 00    	jne    401d47 <notify_server+0x19b>
  401bb9:	53                   	push   %rbx
  401bba:	48 81 ec 10 40 00 00 	sub    $0x4010,%rsp
  401bc1:	89 fb                	mov    %edi,%ebx
  401bc3:	8b 05 3b 45 20 00    	mov    0x20453b(%rip),%eax        # 606104 <gets_cnt>
  401bc9:	83 c0 64             	add    $0x64,%eax
  401bcc:	3d 00 20 00 00       	cmp    $0x2000,%eax
  401bd1:	7e 19                	jle    401bec <notify_server+0x40>
  401bd3:	bf c8 32 40 00       	mov    $0x4032c8,%edi
  401bd8:	b8 00 00 00 00       	mov    $0x0,%eax
  401bdd:	e8 7e f0 ff ff       	callq  400c60 <printf@plt>
  401be2:	bf 01 00 00 00       	mov    $0x1,%edi
  401be7:	e8 d4 f1 ff ff       	callq  400dc0 <exit@plt>
  401bec:	44 0f be 0d 14 45 20 	movsbl 0x204514(%rip),%r9d        # 606108 <target_prefix>
  401bf3:	00 
  401bf4:	83 3d 8d 38 20 00 00 	cmpl   $0x0,0x20388d(%rip)        # 605488 <notify>
  401bfb:	74 09                	je     401c06 <notify_server+0x5a>
  401bfd:	44 8b 05 dc 38 20 00 	mov    0x2038dc(%rip),%r8d        # 6054e0 <authkey>
  401c04:	eb 06                	jmp    401c0c <notify_server+0x60>
  401c06:	41 b8 ff ff ff ff    	mov    $0xffffffff,%r8d
  401c0c:	85 db                	test   %ebx,%ebx
  401c0e:	74 07                	je     401c17 <notify_server+0x6b>
  401c10:	b9 a9 31 40 00       	mov    $0x4031a9,%ecx
  401c15:	eb 05                	jmp    401c1c <notify_server+0x70>
  401c17:	b9 ae 31 40 00       	mov    $0x4031ae,%ecx
  401c1c:	48 c7 44 24 08 00 55 	movq   $0x605500,0x8(%rsp)
  401c23:	60 00 
  401c25:	89 34 24             	mov    %esi,(%rsp)
  401c28:	8b 15 1a 35 20 00    	mov    0x20351a(%rip),%edx        # 605148 <target_id>
  401c2e:	be b3 31 40 00       	mov    $0x4031b3,%esi
  401c33:	48 8d bc 24 10 20 00 	lea    0x2010(%rsp),%rdi
  401c3a:	00 
  401c3b:	b8 00 00 00 00       	mov    $0x0,%eax
  401c40:	e8 6b f1 ff ff       	callq  400db0 <sprintf@plt>
  401c45:	83 3d 3c 38 20 00 00 	cmpl   $0x0,0x20383c(%rip)        # 605488 <notify>
  401c4c:	74 78                	je     401cc6 <notify_server+0x11a>
  401c4e:	85 db                	test   %ebx,%ebx
  401c50:	74 68                	je     401cba <notify_server+0x10e>
  401c52:	4c 8d 4c 24 10       	lea    0x10(%rsp),%r9
  401c57:	41 b8 00 00 00 00    	mov    $0x0,%r8d
  401c5d:	48 8d 8c 24 10 20 00 	lea    0x2010(%rsp),%rcx
  401c64:	00 
  401c65:	48 8b 15 e4 34 20 00 	mov    0x2034e4(%rip),%rdx        # 605150 <lab>
  401c6c:	48 8b 35 e5 34 20 00 	mov    0x2034e5(%rip),%rsi        # 605158 <course>
  401c73:	48 8b 3d c6 34 20 00 	mov    0x2034c6(%rip),%rdi        # 605140 <user_id>
  401c7a:	e8 94 0f 00 00       	callq  402c13 <driver_post>
  401c7f:	85 c0                	test   %eax,%eax
  401c81:	79 1e                	jns    401ca1 <notify_server+0xf5>
  401c83:	48 8d 74 24 10       	lea    0x10(%rsp),%rsi
  401c88:	bf cf 31 40 00       	mov    $0x4031cf,%edi
  401c8d:	b8 00 00 00 00       	mov    $0x0,%eax
  401c92:	e8 c9 ef ff ff       	callq  400c60 <printf@plt>
  401c97:	bf 01 00 00 00       	mov    $0x1,%edi
  401c9c:	e8 1f f1 ff ff       	callq  400dc0 <exit@plt>
  401ca1:	bf f8 32 40 00       	mov    $0x4032f8,%edi
  401ca6:	e8 85 ef ff ff       	callq  400c30 <puts@plt>
  401cab:	bf db 31 40 00       	mov    $0x4031db,%edi
  401cb0:	e8 7b ef ff ff       	callq  400c30 <puts@plt>
  401cb5:	e9 85 00 00 00       	jmpq   401d3f <notify_server+0x193>
  401cba:	bf e5 31 40 00       	mov    $0x4031e5,%edi
  401cbf:	e8 6c ef ff ff       	callq  400c30 <puts@plt>
  401cc4:	eb 79                	jmp    401d3f <notify_server+0x193>
  401cc6:	85 db                	test   %ebx,%ebx
  401cc8:	74 08                	je     401cd2 <notify_server+0x126>
  401cca:	be a9 31 40 00       	mov    $0x4031a9,%esi
  401ccf:	90                   	nop
  401cd0:	eb 05                	jmp    401cd7 <notify_server+0x12b>
  401cd2:	be ae 31 40 00       	mov    $0x4031ae,%esi
  401cd7:	bf 30 33 40 00       	mov    $0x403330,%edi
  401cdc:	b8 00 00 00 00       	mov    $0x0,%eax
  401ce1:	e8 7a ef ff ff       	callq  400c60 <printf@plt>
  401ce6:	48 8b 35 53 34 20 00 	mov    0x203453(%rip),%rsi        # 605140 <user_id>
  401ced:	bf ec 31 40 00       	mov    $0x4031ec,%edi
  401cf2:	b8 00 00 00 00       	mov    $0x0,%eax
  401cf7:	e8 64 ef ff ff       	callq  400c60 <printf@plt>
  401cfc:	48 8b 35 55 34 20 00 	mov    0x203455(%rip),%rsi        # 605158 <course>
  401d03:	bf f9 31 40 00       	mov    $0x4031f9,%edi
  401d08:	b8 00 00 00 00       	mov    $0x0,%eax
  401d0d:	e8 4e ef ff ff       	callq  400c60 <printf@plt>
  401d12:	48 8b 35 37 34 20 00 	mov    0x203437(%rip),%rsi        # 605150 <lab>
  401d19:	bf 05 32 40 00       	mov    $0x403205,%edi
  401d1e:	b8 00 00 00 00       	mov    $0x0,%eax
  401d23:	e8 38 ef ff ff       	callq  400c60 <printf@plt>
  401d28:	48 8d b4 24 10 20 00 	lea    0x2010(%rsp),%rsi
  401d2f:	00 
  401d30:	bf 0e 32 40 00       	mov    $0x40320e,%edi
  401d35:	b8 00 00 00 00       	mov    $0x0,%eax
  401d3a:	e8 21 ef ff ff       	callq  400c60 <printf@plt>
  401d3f:	48 81 c4 10 40 00 00 	add    $0x4010,%rsp
  401d46:	5b                   	pop    %rbx
  401d47:	f3 c3                	repz retq 

0000000000401d49 <validate>:
  401d49:	53                   	push   %rbx
  401d4a:	89 fb                	mov    %edi,%ebx
  401d4c:	83 3d 95 37 20 00 00 	cmpl   $0x0,0x203795(%rip)        # 6054e8 <is_checker>
  401d53:	74 60                	je     401db5 <validate+0x6c>
  401d55:	39 3d 81 37 20 00    	cmp    %edi,0x203781(%rip)        # 6054dc <vlevel>
  401d5b:	74 14                	je     401d71 <validate+0x28>
  401d5d:	bf 1a 32 40 00       	mov    $0x40321a,%edi
  401d62:	e8 c9 ee ff ff       	callq  400c30 <puts@plt>
  401d67:	b8 00 00 00 00       	mov    $0x0,%eax
  401d6c:	e8 ba fd ff ff       	callq  401b2b <check_fail>
  401d71:	8b 35 61 37 20 00    	mov    0x203761(%rip),%esi        # 6054d8 <check_level>
  401d77:	39 fe                	cmp    %edi,%esi
  401d79:	74 1b                	je     401d96 <validate+0x4d>
  401d7b:	89 fa                	mov    %edi,%edx
  401d7d:	bf 58 33 40 00       	mov    $0x403358,%edi
  401d82:	b8 00 00 00 00       	mov    $0x0,%eax
  401d87:	e8 d4 ee ff ff       	callq  400c60 <printf@plt>
  401d8c:	b8 00 00 00 00       	mov    $0x0,%eax
  401d91:	e8 95 fd ff ff       	callq  401b2b <check_fail>
  401d96:	0f be 35 6b 43 20 00 	movsbl 0x20436b(%rip),%esi        # 606108 <target_prefix>
  401d9d:	b9 00 55 60 00       	mov    $0x605500,%ecx
  401da2:	89 fa                	mov    %edi,%edx
  401da4:	bf 38 32 40 00       	mov    $0x403238,%edi
  401da9:	b8 00 00 00 00       	mov    $0x0,%eax
  401dae:	e8 ad ee ff ff       	callq  400c60 <printf@plt>
  401db3:	eb 44                	jmp    401df9 <validate+0xb0>
  401db5:	39 3d 21 37 20 00    	cmp    %edi,0x203721(%rip)        # 6054dc <vlevel>
  401dbb:	74 18                	je     401dd5 <validate+0x8c>
  401dbd:	bf 1a 32 40 00       	mov    $0x40321a,%edi
  401dc2:	e8 69 ee ff ff       	callq  400c30 <puts@plt>
  401dc7:	89 de                	mov    %ebx,%esi
  401dc9:	bf 00 00 00 00       	mov    $0x0,%edi
  401dce:	e8 d9 fd ff ff       	callq  401bac <notify_server>
  401dd3:	eb 24                	jmp    401df9 <validate+0xb0>
  401dd5:	0f be 15 2c 43 20 00 	movsbl 0x20432c(%rip),%edx        # 606108 <target_prefix>
  401ddc:	89 fe                	mov    %edi,%esi
  401dde:	bf 80 33 40 00       	mov    $0x403380,%edi
  401de3:	b8 00 00 00 00       	mov    $0x0,%eax
  401de8:	e8 73 ee ff ff       	callq  400c60 <printf@plt>
  401ded:	89 de                	mov    %ebx,%esi
  401def:	bf 01 00 00 00       	mov    $0x1,%edi
  401df4:	e8 b3 fd ff ff       	callq  401bac <notify_server>
  401df9:	5b                   	pop    %rbx
  401dfa:	c3                   	retq   

0000000000401dfb <fail>:
  401dfb:	48 83 ec 08          	sub    $0x8,%rsp
  401dff:	83 3d e2 36 20 00 00 	cmpl   $0x0,0x2036e2(%rip)        # 6054e8 <is_checker>
  401e06:	74 0a                	je     401e12 <fail+0x17>
  401e08:	b8 00 00 00 00       	mov    $0x0,%eax
  401e0d:	e8 19 fd ff ff       	callq  401b2b <check_fail>
  401e12:	89 fe                	mov    %edi,%esi
  401e14:	bf 00 00 00 00       	mov    $0x0,%edi
  401e19:	e8 8e fd ff ff       	callq  401bac <notify_server>
  401e1e:	48 83 c4 08          	add    $0x8,%rsp
  401e22:	c3                   	retq   

0000000000401e23 <bushandler>:
  401e23:	48 83 ec 08          	sub    $0x8,%rsp
  401e27:	83 3d ba 36 20 00 00 	cmpl   $0x0,0x2036ba(%rip)        # 6054e8 <is_checker>
  401e2e:	74 14                	je     401e44 <bushandler+0x21>
  401e30:	bf 4d 32 40 00       	mov    $0x40324d,%edi
  401e35:	e8 f6 ed ff ff       	callq  400c30 <puts@plt>
  401e3a:	b8 00 00 00 00       	mov    $0x0,%eax
  401e3f:	e8 e7 fc ff ff       	callq  401b2b <check_fail>
  401e44:	bf b8 33 40 00       	mov    $0x4033b8,%edi
  401e49:	e8 e2 ed ff ff       	callq  400c30 <puts@plt>
  401e4e:	bf 57 32 40 00       	mov    $0x403257,%edi
  401e53:	e8 d8 ed ff ff       	callq  400c30 <puts@plt>
  401e58:	be 00 00 00 00       	mov    $0x0,%esi
  401e5d:	bf 00 00 00 00       	mov    $0x0,%edi
  401e62:	e8 45 fd ff ff       	callq  401bac <notify_server>
  401e67:	bf 01 00 00 00       	mov    $0x1,%edi
  401e6c:	e8 4f ef ff ff       	callq  400dc0 <exit@plt>

0000000000401e71 <seghandler>:
  401e71:	48 83 ec 08          	sub    $0x8,%rsp
  401e75:	83 3d 6c 36 20 00 00 	cmpl   $0x0,0x20366c(%rip)        # 6054e8 <is_checker>
  401e7c:	74 14                	je     401e92 <seghandler+0x21>
  401e7e:	bf 6d 32 40 00       	mov    $0x40326d,%edi
  401e83:	e8 a8 ed ff ff       	callq  400c30 <puts@plt>
  401e88:	b8 00 00 00 00       	mov    $0x0,%eax
  401e8d:	e8 99 fc ff ff       	callq  401b2b <check_fail>
  401e92:	bf d8 33 40 00       	mov    $0x4033d8,%edi
  401e97:	e8 94 ed ff ff       	callq  400c30 <puts@plt>
  401e9c:	bf 57 32 40 00       	mov    $0x403257,%edi
  401ea1:	e8 8a ed ff ff       	callq  400c30 <puts@plt>
  401ea6:	be 00 00 00 00       	mov    $0x0,%esi
  401eab:	bf 00 00 00 00       	mov    $0x0,%edi
  401eb0:	e8 f7 fc ff ff       	callq  401bac <notify_server>
  401eb5:	bf 01 00 00 00       	mov    $0x1,%edi
  401eba:	e8 01 ef ff ff       	callq  400dc0 <exit@plt>

0000000000401ebf <illegalhandler>:
  401ebf:	48 83 ec 08          	sub    $0x8,%rsp
  401ec3:	83 3d 1e 36 20 00 00 	cmpl   $0x0,0x20361e(%rip)        # 6054e8 <is_checker>
  401eca:	74 14                	je     401ee0 <illegalhandler+0x21>
  401ecc:	bf 80 32 40 00       	mov    $0x403280,%edi
  401ed1:	e8 5a ed ff ff       	callq  400c30 <puts@plt>
  401ed6:	b8 00 00 00 00       	mov    $0x0,%eax
  401edb:	e8 4b fc ff ff       	callq  401b2b <check_fail>
  401ee0:	bf 00 34 40 00       	mov    $0x403400,%edi
  401ee5:	e8 46 ed ff ff       	callq  400c30 <puts@plt>
  401eea:	bf 57 32 40 00       	mov    $0x403257,%edi
  401eef:	e8 3c ed ff ff       	callq  400c30 <puts@plt>
  401ef4:	be 00 00 00 00       	mov    $0x0,%esi
  401ef9:	bf 00 00 00 00       	mov    $0x0,%edi
  401efe:	e8 a9 fc ff ff       	callq  401bac <notify_server>
  401f03:	bf 01 00 00 00       	mov    $0x1,%edi
  401f08:	e8 b3 ee ff ff       	callq  400dc0 <exit@plt>

0000000000401f0d <sigalrmhandler>:
  401f0d:	48 83 ec 08          	sub    $0x8,%rsp
  401f11:	83 3d d0 35 20 00 00 	cmpl   $0x0,0x2035d0(%rip)        # 6054e8 <is_checker>
  401f18:	74 14                	je     401f2e <sigalrmhandler+0x21>
  401f1a:	bf 94 32 40 00       	mov    $0x403294,%edi
  401f1f:	e8 0c ed ff ff       	callq  400c30 <puts@plt>
  401f24:	b8 00 00 00 00       	mov    $0x0,%eax
  401f29:	e8 fd fb ff ff       	callq  401b2b <check_fail>
  401f2e:	be 05 00 00 00       	mov    $0x5,%esi
  401f33:	bf 30 34 40 00       	mov    $0x403430,%edi
  401f38:	b8 00 00 00 00       	mov    $0x0,%eax
  401f3d:	e8 1e ed ff ff       	callq  400c60 <printf@plt>
  401f42:	be 00 00 00 00       	mov    $0x0,%esi
  401f47:	bf 00 00 00 00       	mov    $0x0,%edi
  401f4c:	e8 5b fc ff ff       	callq  401bac <notify_server>
  401f51:	bf 01 00 00 00       	mov    $0x1,%edi
  401f56:	e8 65 ee ff ff       	callq  400dc0 <exit@plt>

0000000000401f5b <launch>:
  401f5b:	55                   	push   %rbp
  401f5c:	48 89 e5             	mov    %rsp,%rbp
  401f5f:	48 89 fa             	mov    %rdi,%rdx
  401f62:	48 8d 47 1e          	lea    0x1e(%rdi),%rax
  401f66:	48 83 e0 f0          	and    $0xfffffffffffffff0,%rax
  401f6a:	48 29 c4             	sub    %rax,%rsp
  401f6d:	48 8d 7c 24 0f       	lea    0xf(%rsp),%rdi
  401f72:	48 83 e7 f0          	and    $0xfffffffffffffff0,%rdi
  401f76:	be f4 00 00 00       	mov    $0xf4,%esi
  401f7b:	e8 f0 ec ff ff       	callq  400c70 <memset@plt>
  401f80:	48 8b 05 19 35 20 00 	mov    0x203519(%rip),%rax        # 6054a0 <stdin@@GLIBC_2.2.5>
  401f87:	48 39 05 42 35 20 00 	cmp    %rax,0x203542(%rip)        # 6054d0 <infile>
  401f8e:	75 0f                	jne    401f9f <launch+0x44>
  401f90:	bf 9c 32 40 00       	mov    $0x40329c,%edi
  401f95:	b8 00 00 00 00       	mov    $0x0,%eax
  401f9a:	e8 c1 ec ff ff       	callq  400c60 <printf@plt>
  401f9f:	c7 05 33 35 20 00 00 	movl   $0x0,0x203533(%rip)        # 6054dc <vlevel>
  401fa6:	00 00 00 
  401fa9:	b8 00 00 00 00       	mov    $0x0,%eax
  401fae:	e8 c5 f9 ff ff       	callq  401978 <test>
  401fb3:	83 3d 2e 35 20 00 00 	cmpl   $0x0,0x20352e(%rip)        # 6054e8 <is_checker>
  401fba:	74 14                	je     401fd0 <launch+0x75>
  401fbc:	bf a9 32 40 00       	mov    $0x4032a9,%edi
  401fc1:	e8 6a ec ff ff       	callq  400c30 <puts@plt>
  401fc6:	b8 00 00 00 00       	mov    $0x0,%eax
  401fcb:	e8 5b fb ff ff       	callq  401b2b <check_fail>
  401fd0:	bf b4 32 40 00       	mov    $0x4032b4,%edi
  401fd5:	e8 56 ec ff ff       	callq  400c30 <puts@plt>
  401fda:	c9                   	leaveq 
  401fdb:	c3                   	retq   

0000000000401fdc <stable_launch>:
  401fdc:	53                   	push   %rbx
  401fdd:	48 89 3d e4 34 20 00 	mov    %rdi,0x2034e4(%rip)        # 6054c8 <global_offset>
  401fe4:	41 b9 00 00 00 00    	mov    $0x0,%r9d
  401fea:	41 b8 00 00 00 00    	mov    $0x0,%r8d
  401ff0:	b9 32 01 00 00       	mov    $0x132,%ecx
  401ff5:	ba 07 00 00 00       	mov    $0x7,%edx
  401ffa:	be 00 00 10 00       	mov    $0x100000,%esi
  401fff:	bf 00 60 58 55       	mov    $0x55586000,%edi
  402004:	e8 47 ec ff ff       	callq  400c50 <mmap@plt>
  402009:	48 89 c3             	mov    %rax,%rbx
  40200c:	48 3d 00 60 58 55    	cmp    $0x55586000,%rax
  402012:	74 32                	je     402046 <stable_launch+0x6a>
  402014:	be 00 00 10 00       	mov    $0x100000,%esi
  402019:	48 89 c7             	mov    %rax,%rdi
  40201c:	e8 2f ed ff ff       	callq  400d50 <munmap@plt>
  402021:	ba 00 60 58 55       	mov    $0x55586000,%edx
  402026:	be 68 34 40 00       	mov    $0x403468,%esi
  40202b:	48 8b 3d 7e 34 20 00 	mov    0x20347e(%rip),%rdi        # 6054b0 <stderr@@GLIBC_2.2.5>
  402032:	b8 00 00 00 00       	mov    $0x0,%eax
  402037:	e8 a4 ec ff ff       	callq  400ce0 <fprintf@plt>
  40203c:	bf 01 00 00 00       	mov    $0x1,%edi
  402041:	e8 7a ed ff ff       	callq  400dc0 <exit@plt>
  402046:	48 8d 90 f8 ff 0f 00 	lea    0xffff8(%rax),%rdx
  40204d:	48 89 15 bc 40 20 00 	mov    %rdx,0x2040bc(%rip)        # 606110 <stack_top>
  402054:	48 89 e0             	mov    %rsp,%rax
  402057:	48 89 d4             	mov    %rdx,%rsp
  40205a:	48 89 c2             	mov    %rax,%rdx
  40205d:	48 89 15 5c 34 20 00 	mov    %rdx,0x20345c(%rip)        # 6054c0 <global_save_stack>
  402064:	48 8b 3d 5d 34 20 00 	mov    0x20345d(%rip),%rdi        # 6054c8 <global_offset>
  40206b:	e8 eb fe ff ff       	callq  401f5b <launch>
  402070:	48 8b 05 49 34 20 00 	mov    0x203449(%rip),%rax        # 6054c0 <global_save_stack>
  402077:	48 89 c4             	mov    %rax,%rsp
  40207a:	be 00 00 10 00       	mov    $0x100000,%esi
  40207f:	48 89 df             	mov    %rbx,%rdi
  402082:	e8 c9 ec ff ff       	callq  400d50 <munmap@plt>
  402087:	5b                   	pop    %rbx
  402088:	c3                   	retq   
  402089:	0f 1f 80 00 00 00 00 	nopl   0x0(%rax)

0000000000402090 <rio_readinitb>:
  402090:	89 37                	mov    %esi,(%rdi)
  402092:	c7 47 04 00 00 00 00 	movl   $0x0,0x4(%rdi)
  402099:	48 8d 47 10          	lea    0x10(%rdi),%rax
  40209d:	48 89 47 08          	mov    %rax,0x8(%rdi)
  4020a1:	c3                   	retq   

00000000004020a2 <sigalrm_handler>:
  4020a2:	48 83 ec 08          	sub    $0x8,%rsp
  4020a6:	ba 00 00 00 00       	mov    $0x0,%edx
  4020ab:	be a0 34 40 00       	mov    $0x4034a0,%esi
  4020b0:	48 8b 3d f9 33 20 00 	mov    0x2033f9(%rip),%rdi        # 6054b0 <stderr@@GLIBC_2.2.5>
  4020b7:	b8 00 00 00 00       	mov    $0x0,%eax
  4020bc:	e8 1f ec ff ff       	callq  400ce0 <fprintf@plt>
  4020c1:	bf 01 00 00 00       	mov    $0x1,%edi
  4020c6:	e8 f5 ec ff ff       	callq  400dc0 <exit@plt>

00000000004020cb <urlencode>:
  4020cb:	41 54                	push   %r12
  4020cd:	55                   	push   %rbp
  4020ce:	53                   	push   %rbx
  4020cf:	48 83 ec 10          	sub    $0x10,%rsp
  4020d3:	48 89 fb             	mov    %rdi,%rbx
  4020d6:	48 89 f5             	mov    %rsi,%rbp
  4020d9:	b8 00 00 00 00       	mov    $0x0,%eax
  4020de:	48 c7 c1 ff ff ff ff 	mov    $0xffffffffffffffff,%rcx
  4020e5:	f2 ae                	repnz scas %es:(%rdi),%al
  4020e7:	48 f7 d1             	not    %rcx
  4020ea:	8d 41 ff             	lea    -0x1(%rcx),%eax
  4020ed:	e9 93 00 00 00       	jmpq   402185 <urlencode+0xba>
  4020f2:	0f b6 13             	movzbl (%rbx),%edx
  4020f5:	80 fa 2a             	cmp    $0x2a,%dl
  4020f8:	0f 94 c1             	sete   %cl
  4020fb:	80 fa 2d             	cmp    $0x2d,%dl
  4020fe:	0f 94 c0             	sete   %al
  402101:	08 c1                	or     %al,%cl
  402103:	75 1f                	jne    402124 <urlencode+0x59>
  402105:	80 fa 2e             	cmp    $0x2e,%dl
  402108:	74 1a                	je     402124 <urlencode+0x59>
  40210a:	80 fa 5f             	cmp    $0x5f,%dl
  40210d:	74 15                	je     402124 <urlencode+0x59>
  40210f:	8d 42 d0             	lea    -0x30(%rdx),%eax
  402112:	3c 09                	cmp    $0x9,%al
  402114:	76 0e                	jbe    402124 <urlencode+0x59>
  402116:	8d 42 bf             	lea    -0x41(%rdx),%eax
  402119:	3c 19                	cmp    $0x19,%al
  40211b:	76 07                	jbe    402124 <urlencode+0x59>
  40211d:	8d 42 9f             	lea    -0x61(%rdx),%eax
  402120:	3c 19                	cmp    $0x19,%al
  402122:	77 09                	ja     40212d <urlencode+0x62>
  402124:	88 55 00             	mov    %dl,0x0(%rbp)
  402127:	48 8d 6d 01          	lea    0x1(%rbp),%rbp
  40212b:	eb 51                	jmp    40217e <urlencode+0xb3>
  40212d:	80 fa 20             	cmp    $0x20,%dl
  402130:	75 0a                	jne    40213c <urlencode+0x71>
  402132:	c6 45 00 2b          	movb   $0x2b,0x0(%rbp)
  402136:	48 8d 6d 01          	lea    0x1(%rbp),%rbp
  40213a:	eb 42                	jmp    40217e <urlencode+0xb3>
  40213c:	8d 42 e0             	lea    -0x20(%rdx),%eax
  40213f:	3c 5f                	cmp    $0x5f,%al
  402141:	0f 96 c1             	setbe  %cl
  402144:	80 fa 09             	cmp    $0x9,%dl
  402147:	0f 94 c0             	sete   %al
  40214a:	08 c1                	or     %al,%cl
  40214c:	74 45                	je     402193 <urlencode+0xc8>
  40214e:	0f b6 d2             	movzbl %dl,%edx
  402151:	be 38 35 40 00       	mov    $0x403538,%esi
  402156:	48 89 e7             	mov    %rsp,%rdi
  402159:	b8 00 00 00 00       	mov    $0x0,%eax
  40215e:	e8 4d ec ff ff       	callq  400db0 <sprintf@plt>
  402163:	0f b6 04 24          	movzbl (%rsp),%eax
  402167:	88 45 00             	mov    %al,0x0(%rbp)
  40216a:	0f b6 44 24 01       	movzbl 0x1(%rsp),%eax
  40216f:	88 45 01             	mov    %al,0x1(%rbp)
  402172:	0f b6 44 24 02       	movzbl 0x2(%rsp),%eax
  402177:	88 45 02             	mov    %al,0x2(%rbp)
  40217a:	48 8d 6d 03          	lea    0x3(%rbp),%rbp
  40217e:	48 83 c3 01          	add    $0x1,%rbx
  402182:	44 89 e0             	mov    %r12d,%eax
  402185:	44 8d 60 ff          	lea    -0x1(%rax),%r12d
  402189:	85 c0                	test   %eax,%eax
  40218b:	0f 85 61 ff ff ff    	jne    4020f2 <urlencode+0x27>
  402191:	eb 05                	jmp    402198 <urlencode+0xcd>
  402193:	b8 ff ff ff ff       	mov    $0xffffffff,%eax
  402198:	48 83 c4 10          	add    $0x10,%rsp
  40219c:	5b                   	pop    %rbx
  40219d:	5d                   	pop    %rbp
  40219e:	41 5c                	pop    %r12
  4021a0:	c3                   	retq   

00000000004021a1 <rio_writen>:
  4021a1:	41 55                	push   %r13
  4021a3:	41 54                	push   %r12
  4021a5:	55                   	push   %rbp
  4021a6:	53                   	push   %rbx
  4021a7:	48 83 ec 08          	sub    $0x8,%rsp
  4021ab:	41 89 fc             	mov    %edi,%r12d
  4021ae:	48 89 f5             	mov    %rsi,%rbp
  4021b1:	49 89 d5             	mov    %rdx,%r13
  4021b4:	48 89 d3             	mov    %rdx,%rbx
  4021b7:	eb 28                	jmp    4021e1 <rio_writen+0x40>
  4021b9:	48 89 da             	mov    %rbx,%rdx
  4021bc:	48 89 ee             	mov    %rbp,%rsi
  4021bf:	44 89 e7             	mov    %r12d,%edi
  4021c2:	e8 79 ea ff ff       	callq  400c40 <write@plt>
  4021c7:	48 85 c0             	test   %rax,%rax
  4021ca:	7f 0f                	jg     4021db <rio_writen+0x3a>
  4021cc:	e8 1f ea ff ff       	callq  400bf0 <__errno_location@plt>
  4021d1:	83 38 04             	cmpl   $0x4,(%rax)
  4021d4:	75 15                	jne    4021eb <rio_writen+0x4a>
  4021d6:	b8 00 00 00 00       	mov    $0x0,%eax
  4021db:	48 29 c3             	sub    %rax,%rbx
  4021de:	48 01 c5             	add    %rax,%rbp
  4021e1:	48 85 db             	test   %rbx,%rbx
  4021e4:	75 d3                	jne    4021b9 <rio_writen+0x18>
  4021e6:	4c 89 e8             	mov    %r13,%rax
  4021e9:	eb 07                	jmp    4021f2 <rio_writen+0x51>
  4021eb:	48 c7 c0 ff ff ff ff 	mov    $0xffffffffffffffff,%rax
  4021f2:	48 83 c4 08          	add    $0x8,%rsp
  4021f6:	5b                   	pop    %rbx
  4021f7:	5d                   	pop    %rbp
  4021f8:	41 5c                	pop    %r12
  4021fa:	41 5d                	pop    %r13
  4021fc:	c3                   	retq   

00000000004021fd <rio_read>:
  4021fd:	41 56                	push   %r14
  4021ff:	41 55                	push   %r13
  402201:	41 54                	push   %r12
  402203:	55                   	push   %rbp
  402204:	53                   	push   %rbx
  402205:	48 89 fb             	mov    %rdi,%rbx
  402208:	49 89 f6             	mov    %rsi,%r14
  40220b:	49 89 d5             	mov    %rdx,%r13
  40220e:	4c 8d 67 10          	lea    0x10(%rdi),%r12
  402212:	eb 2a                	jmp    40223e <rio_read+0x41>
  402214:	ba 00 20 00 00       	mov    $0x2000,%edx
  402219:	4c 89 e6             	mov    %r12,%rsi
  40221c:	8b 3b                	mov    (%rbx),%edi
  40221e:	e8 7d ea ff ff       	callq  400ca0 <read@plt>
  402223:	89 43 04             	mov    %eax,0x4(%rbx)
  402226:	85 c0                	test   %eax,%eax
  402228:	79 0c                	jns    402236 <rio_read+0x39>
  40222a:	e8 c1 e9 ff ff       	callq  400bf0 <__errno_location@plt>
  40222f:	83 38 04             	cmpl   $0x4,(%rax)
  402232:	74 0a                	je     40223e <rio_read+0x41>
  402234:	eb 37                	jmp    40226d <rio_read+0x70>
  402236:	85 c0                	test   %eax,%eax
  402238:	74 3c                	je     402276 <rio_read+0x79>
  40223a:	4c 89 63 08          	mov    %r12,0x8(%rbx)
  40223e:	8b 6b 04             	mov    0x4(%rbx),%ebp
  402241:	85 ed                	test   %ebp,%ebp
  402243:	7e cf                	jle    402214 <rio_read+0x17>
  402245:	89 e8                	mov    %ebp,%eax
  402247:	4c 39 e8             	cmp    %r13,%rax
  40224a:	72 03                	jb     40224f <rio_read+0x52>
  40224c:	44 89 ed             	mov    %r13d,%ebp
  40224f:	4c 63 e5             	movslq %ebp,%r12
  402252:	48 8b 73 08          	mov    0x8(%rbx),%rsi
  402256:	4c 89 e2             	mov    %r12,%rdx
  402259:	4c 89 f7             	mov    %r14,%rdi
  40225c:	e8 9f ea ff ff       	callq  400d00 <memcpy@plt>
  402261:	4c 01 63 08          	add    %r12,0x8(%rbx)
  402265:	29 6b 04             	sub    %ebp,0x4(%rbx)
  402268:	4c 89 e0             	mov    %r12,%rax
  40226b:	eb 0e                	jmp    40227b <rio_read+0x7e>
  40226d:	48 c7 c0 ff ff ff ff 	mov    $0xffffffffffffffff,%rax
  402274:	eb 05                	jmp    40227b <rio_read+0x7e>
  402276:	b8 00 00 00 00       	mov    $0x0,%eax
  40227b:	5b                   	pop    %rbx
  40227c:	5d                   	pop    %rbp
  40227d:	41 5c                	pop    %r12
  40227f:	41 5d                	pop    %r13
  402281:	41 5e                	pop    %r14
  402283:	c3                   	retq   

0000000000402284 <rio_readlineb>:
  402284:	41 55                	push   %r13
  402286:	41 54                	push   %r12
  402288:	55                   	push   %rbp
  402289:	53                   	push   %rbx
  40228a:	48 83 ec 18          	sub    $0x18,%rsp
  40228e:	49 89 fd             	mov    %rdi,%r13
  402291:	48 89 f5             	mov    %rsi,%rbp
  402294:	49 89 d4             	mov    %rdx,%r12
  402297:	bb 01 00 00 00       	mov    $0x1,%ebx
  40229c:	eb 3d                	jmp    4022db <rio_readlineb+0x57>
  40229e:	ba 01 00 00 00       	mov    $0x1,%edx
  4022a3:	48 8d 74 24 0f       	lea    0xf(%rsp),%rsi
  4022a8:	4c 89 ef             	mov    %r13,%rdi
  4022ab:	e8 4d ff ff ff       	callq  4021fd <rio_read>
  4022b0:	83 f8 01             	cmp    $0x1,%eax
  4022b3:	75 12                	jne    4022c7 <rio_readlineb+0x43>
  4022b5:	48 8d 55 01          	lea    0x1(%rbp),%rdx
  4022b9:	0f b6 44 24 0f       	movzbl 0xf(%rsp),%eax
  4022be:	88 45 00             	mov    %al,0x0(%rbp)
  4022c1:	3c 0a                	cmp    $0xa,%al
  4022c3:	75 0f                	jne    4022d4 <rio_readlineb+0x50>
  4022c5:	eb 1b                	jmp    4022e2 <rio_readlineb+0x5e>
  4022c7:	85 c0                	test   %eax,%eax
  4022c9:	75 23                	jne    4022ee <rio_readlineb+0x6a>
  4022cb:	48 83 fb 01          	cmp    $0x1,%rbx
  4022cf:	90                   	nop
  4022d0:	75 13                	jne    4022e5 <rio_readlineb+0x61>
  4022d2:	eb 23                	jmp    4022f7 <rio_readlineb+0x73>
  4022d4:	48 83 c3 01          	add    $0x1,%rbx
  4022d8:	48 89 d5             	mov    %rdx,%rbp
  4022db:	4c 39 e3             	cmp    %r12,%rbx
  4022de:	72 be                	jb     40229e <rio_readlineb+0x1a>
  4022e0:	eb 03                	jmp    4022e5 <rio_readlineb+0x61>
  4022e2:	48 89 d5             	mov    %rdx,%rbp
  4022e5:	c6 45 00 00          	movb   $0x0,0x0(%rbp)
  4022e9:	48 89 d8             	mov    %rbx,%rax
  4022ec:	eb 0e                	jmp    4022fc <rio_readlineb+0x78>
  4022ee:	48 c7 c0 ff ff ff ff 	mov    $0xffffffffffffffff,%rax
  4022f5:	eb 05                	jmp    4022fc <rio_readlineb+0x78>
  4022f7:	b8 00 00 00 00       	mov    $0x0,%eax
  4022fc:	48 83 c4 18          	add    $0x18,%rsp
  402300:	5b                   	pop    %rbx
  402301:	5d                   	pop    %rbp
  402302:	41 5c                	pop    %r12
  402304:	41 5d                	pop    %r13
  402306:	c3                   	retq   

0000000000402307 <submitr>:
  402307:	41 57                	push   %r15
  402309:	41 56                	push   %r14
  40230b:	41 55                	push   %r13
  40230d:	41 54                	push   %r12
  40230f:	55                   	push   %rbp
  402310:	53                   	push   %rbx
  402311:	48 81 ec 48 a0 00 00 	sub    $0xa048,%rsp
  402318:	49 89 fc             	mov    %rdi,%r12
  40231b:	89 74 24 04          	mov    %esi,0x4(%rsp)
  40231f:	49 89 d7             	mov    %rdx,%r15
  402322:	49 89 ce             	mov    %rcx,%r14
  402325:	4c 89 44 24 08       	mov    %r8,0x8(%rsp)
  40232a:	4d 89 cd             	mov    %r9,%r13
  40232d:	48 8b 9c 24 80 a0 00 	mov    0xa080(%rsp),%rbx
  402334:	00 
  402335:	c7 84 24 1c 20 00 00 	movl   $0x0,0x201c(%rsp)
  40233c:	00 00 00 00 
  402340:	ba 00 00 00 00       	mov    $0x0,%edx
  402345:	be 01 00 00 00       	mov    $0x1,%esi
  40234a:	bf 02 00 00 00       	mov    $0x2,%edi
  40234f:	e8 8c ea ff ff       	callq  400de0 <socket@plt>
  402354:	89 c5                	mov    %eax,%ebp
  402356:	85 c0                	test   %eax,%eax
  402358:	79 4e                	jns    4023a8 <submitr+0xa1>
  40235a:	48 b8 45 72 72 6f 72 	movabs $0x43203a726f727245,%rax
  402361:	3a 20 43 
  402364:	48 89 03             	mov    %rax,(%rbx)
  402367:	48 b8 6c 69 65 6e 74 	movabs $0x6e7520746e65696c,%rax
  40236e:	20 75 6e 
  402371:	48 89 43 08          	mov    %rax,0x8(%rbx)
  402375:	48 b8 61 62 6c 65 20 	movabs $0x206f7420656c6261,%rax
  40237c:	74 6f 20 
  40237f:	48 89 43 10          	mov    %rax,0x10(%rbx)
  402383:	48 b8 63 72 65 61 74 	movabs $0x7320657461657263,%rax
  40238a:	65 20 73 
  40238d:	48 89 43 18          	mov    %rax,0x18(%rbx)
  402391:	c7 43 20 6f 63 6b 65 	movl   $0x656b636f,0x20(%rbx)
  402398:	66 c7 43 24 74 00    	movw   $0x74,0x24(%rbx)
  40239e:	b8 ff ff ff ff       	mov    $0xffffffff,%eax
  4023a3:	e9 68 06 00 00       	jmpq   402a10 <submitr+0x709>
  4023a8:	4c 89 e7             	mov    %r12,%rdi
  4023ab:	e8 20 e9 ff ff       	callq  400cd0 <gethostbyname@plt>
  4023b0:	48 85 c0             	test   %rax,%rax
  4023b3:	75 67                	jne    40241c <submitr+0x115>
  4023b5:	48 b8 45 72 72 6f 72 	movabs $0x44203a726f727245,%rax
  4023bc:	3a 20 44 
  4023bf:	48 89 03             	mov    %rax,(%rbx)
  4023c2:	48 b8 4e 53 20 69 73 	movabs $0x6e7520736920534e,%rax
  4023c9:	20 75 6e 
  4023cc:	48 89 43 08          	mov    %rax,0x8(%rbx)
  4023d0:	48 b8 61 62 6c 65 20 	movabs $0x206f7420656c6261,%rax
  4023d7:	74 6f 20 
  4023da:	48 89 43 10          	mov    %rax,0x10(%rbx)
  4023de:	48 b8 72 65 73 6f 6c 	movabs $0x2065766c6f736572,%rax
  4023e5:	76 65 20 
  4023e8:	48 89 43 18          	mov    %rax,0x18(%rbx)
  4023ec:	48 b8 73 65 72 76 65 	movabs $0x6120726576726573,%rax
  4023f3:	72 20 61 
  4023f6:	48 89 43 20          	mov    %rax,0x20(%rbx)
  4023fa:	c7 43 28 64 64 72 65 	movl   $0x65726464,0x28(%rbx)
  402401:	66 c7 43 2c 73 73    	movw   $0x7373,0x2c(%rbx)
  402407:	c6 43 2e 00          	movb   $0x0,0x2e(%rbx)
  40240b:	89 ef                	mov    %ebp,%edi
  40240d:	e8 7e e8 ff ff       	callq  400c90 <close@plt>
  402412:	b8 ff ff ff ff       	mov    $0xffffffff,%eax
  402417:	e9 f4 05 00 00       	jmpq   402a10 <submitr+0x709>
  40241c:	48 c7 84 24 30 a0 00 	movq   $0x0,0xa030(%rsp)
  402423:	00 00 00 00 00 
  402428:	48 c7 84 24 38 a0 00 	movq   $0x0,0xa038(%rsp)
  40242f:	00 00 00 00 00 
  402434:	66 c7 84 24 30 a0 00 	movw   $0x2,0xa030(%rsp)
  40243b:	00 02 00 
  40243e:	48 8b 48 18          	mov    0x18(%rax),%rcx
  402442:	48 63 50 14          	movslq 0x14(%rax),%rdx
  402446:	48 8d b4 24 34 a0 00 	lea    0xa034(%rsp),%rsi
  40244d:	00 
  40244e:	48 8b 39             	mov    (%rcx),%rdi
  402451:	e8 0a e9 ff ff       	callq  400d60 <bcopy@plt>
  402456:	0f b7 44 24 04       	movzwl 0x4(%rsp),%eax
  40245b:	66 c1 c8 08          	ror    $0x8,%ax
  40245f:	66 89 84 24 32 a0 00 	mov    %ax,0xa032(%rsp)
  402466:	00 
  402467:	ba 10 00 00 00       	mov    $0x10,%edx
  40246c:	48 8d b4 24 30 a0 00 	lea    0xa030(%rsp),%rsi
  402473:	00 
  402474:	89 ef                	mov    %ebp,%edi
  402476:	e8 55 e9 ff ff       	callq  400dd0 <connect@plt>
  40247b:	85 c0                	test   %eax,%eax
  40247d:	79 59                	jns    4024d8 <submitr+0x1d1>
  40247f:	48 b8 45 72 72 6f 72 	movabs $0x55203a726f727245,%rax
  402486:	3a 20 55 
  402489:	48 89 03             	mov    %rax,(%rbx)
  40248c:	48 b8 6e 61 62 6c 65 	movabs $0x6f7420656c62616e,%rax
  402493:	20 74 6f 
  402496:	48 89 43 08          	mov    %rax,0x8(%rbx)
  40249a:	48 b8 20 63 6f 6e 6e 	movabs $0x7463656e6e6f6320,%rax
  4024a1:	65 63 74 
  4024a4:	48 89 43 10          	mov    %rax,0x10(%rbx)
  4024a8:	48 b8 20 74 6f 20 74 	movabs $0x20656874206f7420,%rax
  4024af:	68 65 20 
  4024b2:	48 89 43 18          	mov    %rax,0x18(%rbx)
  4024b6:	c7 43 20 73 65 72 76 	movl   $0x76726573,0x20(%rbx)
  4024bd:	66 c7 43 24 65 72    	movw   $0x7265,0x24(%rbx)
  4024c3:	c6 43 26 00          	movb   $0x0,0x26(%rbx)
  4024c7:	89 ef                	mov    %ebp,%edi
  4024c9:	e8 c2 e7 ff ff       	callq  400c90 <close@plt>
  4024ce:	b8 ff ff ff ff       	mov    $0xffffffff,%eax
  4024d3:	e9 38 05 00 00       	jmpq   402a10 <submitr+0x709>
  4024d8:	48 c7 c2 ff ff ff ff 	mov    $0xffffffffffffffff,%rdx
  4024df:	4c 89 ef             	mov    %r13,%rdi
  4024e2:	b8 00 00 00 00       	mov    $0x0,%eax
  4024e7:	48 89 d1             	mov    %rdx,%rcx
  4024ea:	f2 ae                	repnz scas %es:(%rdi),%al
  4024ec:	48 f7 d1             	not    %rcx
  4024ef:	48 89 ce             	mov    %rcx,%rsi
  4024f2:	4c 89 ff             	mov    %r15,%rdi
  4024f5:	48 89 d1             	mov    %rdx,%rcx
  4024f8:	f2 ae                	repnz scas %es:(%rdi),%al
  4024fa:	48 f7 d1             	not    %rcx
  4024fd:	49 89 c8             	mov    %rcx,%r8
  402500:	4c 89 f7             	mov    %r14,%rdi
  402503:	48 89 d1             	mov    %rdx,%rcx
  402506:	f2 ae                	repnz scas %es:(%rdi),%al
  402508:	49 29 c8             	sub    %rcx,%r8
  40250b:	48 8b 7c 24 08       	mov    0x8(%rsp),%rdi
  402510:	48 89 d1             	mov    %rdx,%rcx
  402513:	f2 ae                	repnz scas %es:(%rdi),%al
  402515:	49 29 c8             	sub    %rcx,%r8
  402518:	48 8d 44 76 fd       	lea    -0x3(%rsi,%rsi,2),%rax
  40251d:	49 8d 44 00 7b       	lea    0x7b(%r8,%rax,1),%rax
  402522:	48 3d 00 20 00 00    	cmp    $0x2000,%rax
  402528:	76 72                	jbe    40259c <submitr+0x295>
  40252a:	48 b8 45 72 72 6f 72 	movabs $0x52203a726f727245,%rax
  402531:	3a 20 52 
  402534:	48 89 03             	mov    %rax,(%rbx)
  402537:	48 b8 65 73 75 6c 74 	movabs $0x747320746c757365,%rax
  40253e:	20 73 74 
  402541:	48 89 43 08          	mov    %rax,0x8(%rbx)
  402545:	48 b8 72 69 6e 67 20 	movabs $0x6f6f7420676e6972,%rax
  40254c:	74 6f 6f 
  40254f:	48 89 43 10          	mov    %rax,0x10(%rbx)
  402553:	48 b8 20 6c 61 72 67 	movabs $0x202e656772616c20,%rax
  40255a:	65 2e 20 
  40255d:	48 89 43 18          	mov    %rax,0x18(%rbx)
  402561:	48 b8 49 6e 63 72 65 	movabs $0x6573616572636e49,%rax
  402568:	61 73 65 
  40256b:	48 89 43 20          	mov    %rax,0x20(%rbx)
  40256f:	48 b8 20 53 55 42 4d 	movabs $0x5254494d42555320,%rax
  402576:	49 54 52 
  402579:	48 89 43 28          	mov    %rax,0x28(%rbx)
  40257d:	48 b8 5f 4d 41 58 42 	movabs $0x46554258414d5f,%rax
  402584:	55 46 00 
  402587:	48 89 43 30          	mov    %rax,0x30(%rbx)
  40258b:	89 ef                	mov    %ebp,%edi
  40258d:	e8 fe e6 ff ff       	callq  400c90 <close@plt>
  402592:	b8 ff ff ff ff       	mov    $0xffffffff,%eax
  402597:	e9 74 04 00 00       	jmpq   402a10 <submitr+0x709>
  40259c:	48 8d b4 24 20 40 00 	lea    0x4020(%rsp),%rsi
  4025a3:	00 
  4025a4:	b9 00 04 00 00       	mov    $0x400,%ecx
  4025a9:	b8 00 00 00 00       	mov    $0x0,%eax
  4025ae:	48 89 f7             	mov    %rsi,%rdi
  4025b1:	f3 48 ab             	rep stos %rax,%es:(%rdi)
  4025b4:	4c 89 ef             	mov    %r13,%rdi
  4025b7:	e8 0f fb ff ff       	callq  4020cb <urlencode>
  4025bc:	85 c0                	test   %eax,%eax
  4025be:	0f 89 8a 00 00 00    	jns    40264e <submitr+0x347>
  4025c4:	48 b8 45 72 72 6f 72 	movabs $0x52203a726f727245,%rax
  4025cb:	3a 20 52 
  4025ce:	48 89 03             	mov    %rax,(%rbx)
  4025d1:	48 b8 65 73 75 6c 74 	movabs $0x747320746c757365,%rax
  4025d8:	20 73 74 
  4025db:	48 89 43 08          	mov    %rax,0x8(%rbx)
  4025df:	48 b8 72 69 6e 67 20 	movabs $0x6e6f6320676e6972,%rax
  4025e6:	63 6f 6e 
  4025e9:	48 89 43 10          	mov    %rax,0x10(%rbx)
  4025ed:	48 b8 74 61 69 6e 73 	movabs $0x6e6120736e696174,%rax
  4025f4:	20 61 6e 
  4025f7:	48 89 43 18          	mov    %rax,0x18(%rbx)
  4025fb:	48 b8 20 69 6c 6c 65 	movabs $0x6c6167656c6c6920,%rax
  402602:	67 61 6c 
  402605:	48 89 43 20          	mov    %rax,0x20(%rbx)
  402609:	48 b8 20 6f 72 20 75 	movabs $0x72706e7520726f20,%rax
  402610:	6e 70 72 
  402613:	48 89 43 28          	mov    %rax,0x28(%rbx)
  402617:	48 b8 69 6e 74 61 62 	movabs $0x20656c6261746e69,%rax
  40261e:	6c 65 20 
  402621:	48 89 43 30          	mov    %rax,0x30(%rbx)
  402625:	48 b8 63 68 61 72 61 	movabs $0x6574636172616863,%rax
  40262c:	63 74 65 
  40262f:	48 89 43 38          	mov    %rax,0x38(%rbx)
  402633:	66 c7 43 40 72 2e    	movw   $0x2e72,0x40(%rbx)
  402639:	c6 43 42 00          	movb   $0x0,0x42(%rbx)
  40263d:	89 ef                	mov    %ebp,%edi
  40263f:	e8 4c e6 ff ff       	callq  400c90 <close@plt>
  402644:	b8 ff ff ff ff       	mov    $0xffffffff,%eax
  402649:	e9 c2 03 00 00       	jmpq   402a10 <submitr+0x709>
  40264e:	4d 89 e1             	mov    %r12,%r9
  402651:	4c 8d 84 24 20 40 00 	lea    0x4020(%rsp),%r8
  402658:	00 
  402659:	4c 89 f9             	mov    %r15,%rcx
  40265c:	4c 89 f2             	mov    %r14,%rdx
  40265f:	be c8 34 40 00       	mov    $0x4034c8,%esi
  402664:	48 8d bc 24 20 60 00 	lea    0x6020(%rsp),%rdi
  40266b:	00 
  40266c:	b8 00 00 00 00       	mov    $0x0,%eax
  402671:	e8 3a e7 ff ff       	callq  400db0 <sprintf@plt>
  402676:	48 8d bc 24 20 60 00 	lea    0x6020(%rsp),%rdi
  40267d:	00 
  40267e:	b8 00 00 00 00       	mov    $0x0,%eax
  402683:	48 c7 c1 ff ff ff ff 	mov    $0xffffffffffffffff,%rcx
  40268a:	f2 ae                	repnz scas %es:(%rdi),%al
  40268c:	48 f7 d1             	not    %rcx
  40268f:	48 8d 51 ff          	lea    -0x1(%rcx),%rdx
  402693:	48 8d b4 24 20 60 00 	lea    0x6020(%rsp),%rsi
  40269a:	00 
  40269b:	89 ef                	mov    %ebp,%edi
  40269d:	e8 ff fa ff ff       	callq  4021a1 <rio_writen>
  4026a2:	48 85 c0             	test   %rax,%rax
  4026a5:	79 6e                	jns    402715 <submitr+0x40e>
  4026a7:	48 b8 45 72 72 6f 72 	movabs $0x43203a726f727245,%rax
  4026ae:	3a 20 43 
  4026b1:	48 89 03             	mov    %rax,(%rbx)
  4026b4:	48 b8 6c 69 65 6e 74 	movabs $0x6e7520746e65696c,%rax
  4026bb:	20 75 6e 
  4026be:	48 89 43 08          	mov    %rax,0x8(%rbx)
  4026c2:	48 b8 61 62 6c 65 20 	movabs $0x206f7420656c6261,%rax
  4026c9:	74 6f 20 
  4026cc:	48 89 43 10          	mov    %rax,0x10(%rbx)
  4026d0:	48 b8 77 72 69 74 65 	movabs $0x6f74206574697277,%rax
  4026d7:	20 74 6f 
  4026da:	48 89 43 18          	mov    %rax,0x18(%rbx)
  4026de:	48 b8 20 74 68 65 20 	movabs $0x7365722065687420,%rax
  4026e5:	72 65 73 
  4026e8:	48 89 43 20          	mov    %rax,0x20(%rbx)
  4026ec:	48 b8 75 6c 74 20 73 	movabs $0x7672657320746c75,%rax
  4026f3:	65 72 76 
  4026f6:	48 89 43 28          	mov    %rax,0x28(%rbx)
  4026fa:	66 c7 43 30 65 72    	movw   $0x7265,0x30(%rbx)
  402700:	c6 43 32 00          	movb   $0x0,0x32(%rbx)
  402704:	89 ef                	mov    %ebp,%edi
  402706:	e8 85 e5 ff ff       	callq  400c90 <close@plt>
  40270b:	b8 ff ff ff ff       	mov    $0xffffffff,%eax
  402710:	e9 fb 02 00 00       	jmpq   402a10 <submitr+0x709>
  402715:	89 ee                	mov    %ebp,%esi
  402717:	48 8d bc 24 20 80 00 	lea    0x8020(%rsp),%rdi
  40271e:	00 
  40271f:	e8 6c f9 ff ff       	callq  402090 <rio_readinitb>
  402724:	ba 00 20 00 00       	mov    $0x2000,%edx
  402729:	48 8d b4 24 20 60 00 	lea    0x6020(%rsp),%rsi
  402730:	00 
  402731:	48 8d bc 24 20 80 00 	lea    0x8020(%rsp),%rdi
  402738:	00 
  402739:	e8 46 fb ff ff       	callq  402284 <rio_readlineb>
  40273e:	48 85 c0             	test   %rax,%rax
  402741:	7f 7d                	jg     4027c0 <submitr+0x4b9>
  402743:	48 b8 45 72 72 6f 72 	movabs $0x43203a726f727245,%rax
  40274a:	3a 20 43 
  40274d:	48 89 03             	mov    %rax,(%rbx)
  402750:	48 b8 6c 69 65 6e 74 	movabs $0x6e7520746e65696c,%rax
  402757:	20 75 6e 
  40275a:	48 89 43 08          	mov    %rax,0x8(%rbx)
  40275e:	48 b8 61 62 6c 65 20 	movabs $0x206f7420656c6261,%rax
  402765:	74 6f 20 
  402768:	48 89 43 10          	mov    %rax,0x10(%rbx)
  40276c:	48 b8 72 65 61 64 20 	movabs $0x7269662064616572,%rax
  402773:	66 69 72 
  402776:	48 89 43 18          	mov    %rax,0x18(%rbx)
  40277a:	48 b8 73 74 20 68 65 	movabs $0x6564616568207473,%rax
  402781:	61 64 65 
  402784:	48 89 43 20          	mov    %rax,0x20(%rbx)
  402788:	48 b8 72 20 66 72 6f 	movabs $0x72206d6f72662072,%rax
  40278f:	6d 20 72 
  402792:	48 89 43 28          	mov    %rax,0x28(%rbx)
  402796:	48 b8 65 73 75 6c 74 	movabs $0x657320746c757365,%rax
  40279d:	20 73 65 
  4027a0:	48 89 43 30          	mov    %rax,0x30(%rbx)
  4027a4:	c7 43 38 72 76 65 72 	movl   $0x72657672,0x38(%rbx)
  4027ab:	c6 43 3c 00          	movb   $0x0,0x3c(%rbx)
  4027af:	89 ef                	mov    %ebp,%edi
  4027b1:	e8 da e4 ff ff       	callq  400c90 <close@plt>
  4027b6:	b8 ff ff ff ff       	mov    $0xffffffff,%eax
  4027bb:	e9 50 02 00 00       	jmpq   402a10 <submitr+0x709>
  4027c0:	4c 8d 44 24 10       	lea    0x10(%rsp),%r8
  4027c5:	48 8d 8c 24 1c 20 00 	lea    0x201c(%rsp),%rcx
  4027cc:	00 
  4027cd:	48 8d 94 24 20 20 00 	lea    0x2020(%rsp),%rdx
  4027d4:	00 
  4027d5:	be 3f 35 40 00       	mov    $0x40353f,%esi
  4027da:	48 8d bc 24 20 60 00 	lea    0x6020(%rsp),%rdi
  4027e1:	00 
  4027e2:	b8 00 00 00 00       	mov    $0x0,%eax
  4027e7:	e8 54 e5 ff ff       	callq  400d40 <__isoc99_sscanf@plt>
  4027ec:	e9 98 00 00 00       	jmpq   402889 <submitr+0x582>
  4027f1:	ba 00 20 00 00       	mov    $0x2000,%edx
  4027f6:	48 8d b4 24 20 60 00 	lea    0x6020(%rsp),%rsi
  4027fd:	00 
  4027fe:	48 8d bc 24 20 80 00 	lea    0x8020(%rsp),%rdi
  402805:	00 
  402806:	e8 79 fa ff ff       	callq  402284 <rio_readlineb>
  40280b:	48 85 c0             	test   %rax,%rax
  40280e:	7f 79                	jg     402889 <submitr+0x582>
  402810:	48 b8 45 72 72 6f 72 	movabs $0x43203a726f727245,%rax
  402817:	3a 20 43 
  40281a:	48 89 03             	mov    %rax,(%rbx)
  40281d:	48 b8 6c 69 65 6e 74 	movabs $0x6e7520746e65696c,%rax
  402824:	20 75 6e 
  402827:	48 89 43 08          	mov    %rax,0x8(%rbx)
  40282b:	48 b8 61 62 6c 65 20 	movabs $0x206f7420656c6261,%rax
  402832:	74 6f 20 
  402835:	48 89 43 10          	mov    %rax,0x10(%rbx)
  402839:	48 b8 72 65 61 64 20 	movabs $0x6165682064616572,%rax
  402840:	68 65 61 
  402843:	48 89 43 18          	mov    %rax,0x18(%rbx)
  402847:	48 b8 64 65 72 73 20 	movabs $0x6f72662073726564,%rax
  40284e:	66 72 6f 
  402851:	48 89 43 20          	mov    %rax,0x20(%rbx)
  402855:	48 b8 6d 20 74 68 65 	movabs $0x657220656874206d,%rax
  40285c:	20 72 65 
  40285f:	48 89 43 28          	mov    %rax,0x28(%rbx)
  402863:	48 b8 73 75 6c 74 20 	movabs $0x72657320746c7573,%rax
  40286a:	73 65 72 
  40286d:	48 89 43 30          	mov    %rax,0x30(%rbx)
  402871:	c7 43 38 76 65 72 00 	movl   $0x726576,0x38(%rbx)
  402878:	89 ef                	mov    %ebp,%edi
  40287a:	e8 11 e4 ff ff       	callq  400c90 <close@plt>
  40287f:	b8 ff ff ff ff       	mov    $0xffffffff,%eax
  402884:	e9 87 01 00 00       	jmpq   402a10 <submitr+0x709>
  402889:	0f b6 84 24 20 60 00 	movzbl 0x6020(%rsp),%eax
  402890:	00 
  402891:	83 e8 0d             	sub    $0xd,%eax
  402894:	75 15                	jne    4028ab <submitr+0x5a4>
  402896:	0f b6 84 24 21 60 00 	movzbl 0x6021(%rsp),%eax
  40289d:	00 
  40289e:	83 e8 0a             	sub    $0xa,%eax
  4028a1:	75 08                	jne    4028ab <submitr+0x5a4>
  4028a3:	0f b6 84 24 22 60 00 	movzbl 0x6022(%rsp),%eax
  4028aa:	00 
  4028ab:	85 c0                	test   %eax,%eax
  4028ad:	0f 85 3e ff ff ff    	jne    4027f1 <submitr+0x4ea>
  4028b3:	ba 00 20 00 00       	mov    $0x2000,%edx
  4028b8:	48 8d b4 24 20 60 00 	lea    0x6020(%rsp),%rsi
  4028bf:	00 
  4028c0:	48 8d bc 24 20 80 00 	lea    0x8020(%rsp),%rdi
  4028c7:	00 
  4028c8:	e8 b7 f9 ff ff       	callq  402284 <rio_readlineb>
  4028cd:	48 85 c0             	test   %rax,%rax
  4028d0:	0f 8f 83 00 00 00    	jg     402959 <submitr+0x652>
  4028d6:	48 b8 45 72 72 6f 72 	movabs $0x43203a726f727245,%rax
  4028dd:	3a 20 43 
  4028e0:	48 89 03             	mov    %rax,(%rbx)
  4028e3:	48 b8 6c 69 65 6e 74 	movabs $0x6e7520746e65696c,%rax
  4028ea:	20 75 6e 
  4028ed:	48 89 43 08          	mov    %rax,0x8(%rbx)
  4028f1:	48 b8 61 62 6c 65 20 	movabs $0x206f7420656c6261,%rax
  4028f8:	74 6f 20 
  4028fb:	48 89 43 10          	mov    %rax,0x10(%rbx)
  4028ff:	48 b8 72 65 61 64 20 	movabs $0x6174732064616572,%rax
  402906:	73 74 61 
  402909:	48 89 43 18          	mov    %rax,0x18(%rbx)
  40290d:	48 b8 74 75 73 20 6d 	movabs $0x7373656d20737574,%rax
  402914:	65 73 73 
  402917:	48 89 43 20          	mov    %rax,0x20(%rbx)
  40291b:	48 b8 61 67 65 20 66 	movabs $0x6d6f726620656761,%rax
  402922:	72 6f 6d 
  402925:	48 89 43 28          	mov    %rax,0x28(%rbx)
  402929:	48 b8 20 72 65 73 75 	movabs $0x20746c7573657220,%rax
  402930:	6c 74 20 
  402933:	48 89 43 30          	mov    %rax,0x30(%rbx)
  402937:	c7 43 38 73 65 72 76 	movl   $0x76726573,0x38(%rbx)
  40293e:	66 c7 43 3c 65 72    	movw   $0x7265,0x3c(%rbx)
  402944:	c6 43 3e 00          	movb   $0x0,0x3e(%rbx)
  402948:	89 ef                	mov    %ebp,%edi
  40294a:	e8 41 e3 ff ff       	callq  400c90 <close@plt>
  40294f:	b8 ff ff ff ff       	mov    $0xffffffff,%eax
  402954:	e9 b7 00 00 00       	jmpq   402a10 <submitr+0x709>
  402959:	8b 94 24 1c 20 00 00 	mov    0x201c(%rsp),%edx
  402960:	81 fa c8 00 00 00    	cmp    $0xc8,%edx
  402966:	74 28                	je     402990 <submitr+0x689>
  402968:	48 8d 4c 24 10       	lea    0x10(%rsp),%rcx
  40296d:	be 08 35 40 00       	mov    $0x403508,%esi
  402972:	48 89 df             	mov    %rbx,%rdi
  402975:	b8 00 00 00 00       	mov    $0x0,%eax
  40297a:	e8 31 e4 ff ff       	callq  400db0 <sprintf@plt>
  40297f:	89 ef                	mov    %ebp,%edi
  402981:	e8 0a e3 ff ff       	callq  400c90 <close@plt>
  402986:	b8 ff ff ff ff       	mov    $0xffffffff,%eax
  40298b:	e9 80 00 00 00       	jmpq   402a10 <submitr+0x709>
  402990:	48 8d b4 24 20 60 00 	lea    0x6020(%rsp),%rsi
  402997:	00 
  402998:	48 89 df             	mov    %rbx,%rdi
  40299b:	e8 80 e2 ff ff       	callq  400c20 <strcpy@plt>
  4029a0:	89 ef                	mov    %ebp,%edi
  4029a2:	e8 e9 e2 ff ff       	callq  400c90 <close@plt>
  4029a7:	0f b6 03             	movzbl (%rbx),%eax
  4029aa:	83 e8 4f             	sub    $0x4f,%eax
  4029ad:	75 18                	jne    4029c7 <submitr+0x6c0>
  4029af:	0f b6 53 01          	movzbl 0x1(%rbx),%edx
  4029b3:	83 ea 4b             	sub    $0x4b,%edx
  4029b6:	75 11                	jne    4029c9 <submitr+0x6c2>
  4029b8:	0f b6 53 02          	movzbl 0x2(%rbx),%edx
  4029bc:	83 ea 0a             	sub    $0xa,%edx
  4029bf:	75 08                	jne    4029c9 <submitr+0x6c2>
  4029c1:	0f b6 53 03          	movzbl 0x3(%rbx),%edx
  4029c5:	eb 02                	jmp    4029c9 <submitr+0x6c2>
  4029c7:	89 c2                	mov    %eax,%edx
  4029c9:	85 d2                	test   %edx,%edx
  4029cb:	74 30                	je     4029fd <submitr+0x6f6>
  4029cd:	bf 50 35 40 00       	mov    $0x403550,%edi
  4029d2:	b9 05 00 00 00       	mov    $0x5,%ecx
  4029d7:	48 89 de             	mov    %rbx,%rsi
  4029da:	f3 a6                	repz cmpsb %es:(%rdi),%ds:(%rsi)
  4029dc:	0f 97 c1             	seta   %cl
  4029df:	0f 92 c2             	setb   %dl
  4029e2:	38 d1                	cmp    %dl,%cl
  4029e4:	74 1e                	je     402a04 <submitr+0x6fd>
  4029e6:	85 c0                	test   %eax,%eax
  4029e8:	75 0d                	jne    4029f7 <submitr+0x6f0>
  4029ea:	0f b6 43 01          	movzbl 0x1(%rbx),%eax
  4029ee:	83 e8 4b             	sub    $0x4b,%eax
  4029f1:	75 04                	jne    4029f7 <submitr+0x6f0>
  4029f3:	0f b6 43 02          	movzbl 0x2(%rbx),%eax
  4029f7:	85 c0                	test   %eax,%eax
  4029f9:	75 10                	jne    402a0b <submitr+0x704>
  4029fb:	eb 13                	jmp    402a10 <submitr+0x709>
  4029fd:	b8 00 00 00 00       	mov    $0x0,%eax
  402a02:	eb 0c                	jmp    402a10 <submitr+0x709>
  402a04:	b8 00 00 00 00       	mov    $0x0,%eax
  402a09:	eb 05                	jmp    402a10 <submitr+0x709>
  402a0b:	b8 ff ff ff ff       	mov    $0xffffffff,%eax
  402a10:	48 81 c4 48 a0 00 00 	add    $0xa048,%rsp
  402a17:	5b                   	pop    %rbx
  402a18:	5d                   	pop    %rbp
  402a19:	41 5c                	pop    %r12
  402a1b:	41 5d                	pop    %r13
  402a1d:	41 5e                	pop    %r14
  402a1f:	41 5f                	pop    %r15
  402a21:	c3                   	retq   

0000000000402a22 <init_timeout>:
  402a22:	53                   	push   %rbx
  402a23:	89 fb                	mov    %edi,%ebx
  402a25:	85 ff                	test   %edi,%edi
  402a27:	74 1f                	je     402a48 <init_timeout+0x26>
  402a29:	85 ff                	test   %edi,%edi
  402a2b:	79 05                	jns    402a32 <init_timeout+0x10>
  402a2d:	bb 00 00 00 00       	mov    $0x0,%ebx
  402a32:	be a2 20 40 00       	mov    $0x4020a2,%esi
  402a37:	bf 0e 00 00 00       	mov    $0xe,%edi
  402a3c:	e8 7f e2 ff ff       	callq  400cc0 <signal@plt>
  402a41:	89 df                	mov    %ebx,%edi
  402a43:	e8 38 e2 ff ff       	callq  400c80 <alarm@plt>
  402a48:	5b                   	pop    %rbx
  402a49:	c3                   	retq   

0000000000402a4a <init_driver>:
  402a4a:	55                   	push   %rbp
  402a4b:	53                   	push   %rbx
  402a4c:	48 83 ec 18          	sub    $0x18,%rsp
  402a50:	48 89 fd             	mov    %rdi,%rbp
  402a53:	be 01 00 00 00       	mov    $0x1,%esi
  402a58:	bf 0d 00 00 00       	mov    $0xd,%edi
  402a5d:	e8 5e e2 ff ff       	callq  400cc0 <signal@plt>
  402a62:	be 01 00 00 00       	mov    $0x1,%esi
  402a67:	bf 1d 00 00 00       	mov    $0x1d,%edi
  402a6c:	e8 4f e2 ff ff       	callq  400cc0 <signal@plt>
  402a71:	be 01 00 00 00       	mov    $0x1,%esi
  402a76:	bf 1d 00 00 00       	mov    $0x1d,%edi
  402a7b:	e8 40 e2 ff ff       	callq  400cc0 <signal@plt>
  402a80:	ba 00 00 00 00       	mov    $0x0,%edx
  402a85:	be 01 00 00 00       	mov    $0x1,%esi
  402a8a:	bf 02 00 00 00       	mov    $0x2,%edi
  402a8f:	e8 4c e3 ff ff       	callq  400de0 <socket@plt>
  402a94:	89 c3                	mov    %eax,%ebx
  402a96:	85 c0                	test   %eax,%eax
  402a98:	79 4f                	jns    402ae9 <init_driver+0x9f>
  402a9a:	48 b8 45 72 72 6f 72 	movabs $0x43203a726f727245,%rax
  402aa1:	3a 20 43 
  402aa4:	48 89 45 00          	mov    %rax,0x0(%rbp)
  402aa8:	48 b8 6c 69 65 6e 74 	movabs $0x6e7520746e65696c,%rax
  402aaf:	20 75 6e 
  402ab2:	48 89 45 08          	mov    %rax,0x8(%rbp)
  402ab6:	48 b8 61 62 6c 65 20 	movabs $0x206f7420656c6261,%rax
  402abd:	74 6f 20 
  402ac0:	48 89 45 10          	mov    %rax,0x10(%rbp)
  402ac4:	48 b8 63 72 65 61 74 	movabs $0x7320657461657263,%rax
  402acb:	65 20 73 
  402ace:	48 89 45 18          	mov    %rax,0x18(%rbp)
  402ad2:	c7 45 20 6f 63 6b 65 	movl   $0x656b636f,0x20(%rbp)
  402ad9:	66 c7 45 24 74 00    	movw   $0x74,0x24(%rbp)
  402adf:	b8 ff ff ff ff       	mov    $0xffffffff,%eax
  402ae4:	e9 23 01 00 00       	jmpq   402c0c <init_driver+0x1c2>
  402ae9:	bf 94 30 40 00       	mov    $0x403094,%edi
  402aee:	e8 dd e1 ff ff       	callq  400cd0 <gethostbyname@plt>
  402af3:	48 85 c0             	test   %rax,%rax
  402af6:	75 68                	jne    402b60 <init_driver+0x116>
  402af8:	48 b8 45 72 72 6f 72 	movabs $0x44203a726f727245,%rax
  402aff:	3a 20 44 
  402b02:	48 89 45 00          	mov    %rax,0x0(%rbp)
  402b06:	48 b8 4e 53 20 69 73 	movabs $0x6e7520736920534e,%rax
  402b0d:	20 75 6e 
  402b10:	48 89 45 08          	mov    %rax,0x8(%rbp)
  402b14:	48 b8 61 62 6c 65 20 	movabs $0x206f7420656c6261,%rax
  402b1b:	74 6f 20 
  402b1e:	48 89 45 10          	mov    %rax,0x10(%rbp)
  402b22:	48 b8 72 65 73 6f 6c 	movabs $0x2065766c6f736572,%rax
  402b29:	76 65 20 
  402b2c:	48 89 45 18          	mov    %rax,0x18(%rbp)
  402b30:	48 b8 73 65 72 76 65 	movabs $0x6120726576726573,%rax
  402b37:	72 20 61 
  402b3a:	48 89 45 20          	mov    %rax,0x20(%rbp)
  402b3e:	c7 45 28 64 64 72 65 	movl   $0x65726464,0x28(%rbp)
  402b45:	66 c7 45 2c 73 73    	movw   $0x7373,0x2c(%rbp)
  402b4b:	c6 45 2e 00          	movb   $0x0,0x2e(%rbp)
  402b4f:	89 df                	mov    %ebx,%edi
  402b51:	e8 3a e1 ff ff       	callq  400c90 <close@plt>
  402b56:	b8 ff ff ff ff       	mov    $0xffffffff,%eax
  402b5b:	e9 ac 00 00 00       	jmpq   402c0c <init_driver+0x1c2>
  402b60:	48 c7 04 24 00 00 00 	movq   $0x0,(%rsp)
  402b67:	00 
  402b68:	48 c7 44 24 08 00 00 	movq   $0x0,0x8(%rsp)
  402b6f:	00 00 
  402b71:	66 c7 04 24 02 00    	movw   $0x2,(%rsp)
  402b77:	48 8b 48 18          	mov    0x18(%rax),%rcx
  402b7b:	48 63 50 14          	movslq 0x14(%rax),%rdx
  402b7f:	48 8d 74 24 04       	lea    0x4(%rsp),%rsi
  402b84:	48 8b 39             	mov    (%rcx),%rdi
  402b87:	e8 d4 e1 ff ff       	callq  400d60 <bcopy@plt>
  402b8c:	66 c7 44 24 02 3a 99 	movw   $0x993a,0x2(%rsp)
  402b93:	ba 10 00 00 00       	mov    $0x10,%edx
  402b98:	48 89 e6             	mov    %rsp,%rsi
  402b9b:	89 df                	mov    %ebx,%edi
  402b9d:	e8 2e e2 ff ff       	callq  400dd0 <connect@plt>
  402ba2:	85 c0                	test   %eax,%eax
  402ba4:	79 50                	jns    402bf6 <init_driver+0x1ac>
  402ba6:	48 b8 45 72 72 6f 72 	movabs $0x55203a726f727245,%rax
  402bad:	3a 20 55 
  402bb0:	48 89 45 00          	mov    %rax,0x0(%rbp)
  402bb4:	48 b8 6e 61 62 6c 65 	movabs $0x6f7420656c62616e,%rax
  402bbb:	20 74 6f 
  402bbe:	48 89 45 08          	mov    %rax,0x8(%rbp)
  402bc2:	48 b8 20 63 6f 6e 6e 	movabs $0x7463656e6e6f6320,%rax
  402bc9:	65 63 74 
  402bcc:	48 89 45 10          	mov    %rax,0x10(%rbp)
  402bd0:	48 b8 20 74 6f 20 73 	movabs $0x76726573206f7420,%rax
  402bd7:	65 72 76 
  402bda:	48 89 45 18          	mov    %rax,0x18(%rbp)
  402bde:	66 c7 45 20 65 72    	movw   $0x7265,0x20(%rbp)
  402be4:	c6 45 22 00          	movb   $0x0,0x22(%rbp)
  402be8:	89 df                	mov    %ebx,%edi
  402bea:	e8 a1 e0 ff ff       	callq  400c90 <close@plt>
  402bef:	b8 ff ff ff ff       	mov    $0xffffffff,%eax
  402bf4:	eb 16                	jmp    402c0c <init_driver+0x1c2>
  402bf6:	89 df                	mov    %ebx,%edi
  402bf8:	e8 93 e0 ff ff       	callq  400c90 <close@plt>
  402bfd:	66 c7 45 00 4f 4b    	movw   $0x4b4f,0x0(%rbp)
  402c03:	c6 45 02 00          	movb   $0x0,0x2(%rbp)
  402c07:	b8 00 00 00 00       	mov    $0x0,%eax
  402c0c:	48 83 c4 18          	add    $0x18,%rsp
  402c10:	5b                   	pop    %rbx
  402c11:	5d                   	pop    %rbp
  402c12:	c3                   	retq   

0000000000402c13 <driver_post>:
  402c13:	53                   	push   %rbx
  402c14:	48 83 ec 10          	sub    $0x10,%rsp
  402c18:	4c 89 cb             	mov    %r9,%rbx
  402c1b:	45 85 c0             	test   %r8d,%r8d
  402c1e:	74 22                	je     402c42 <driver_post+0x2f>
  402c20:	48 89 ce             	mov    %rcx,%rsi
  402c23:	bf 55 35 40 00       	mov    $0x403555,%edi
  402c28:	b8 00 00 00 00       	mov    $0x0,%eax
  402c2d:	e8 2e e0 ff ff       	callq  400c60 <printf@plt>
  402c32:	66 c7 03 4f 4b       	movw   $0x4b4f,(%rbx)
  402c37:	c6 43 02 00          	movb   $0x0,0x2(%rbx)
  402c3b:	b8 00 00 00 00       	mov    $0x0,%eax
  402c40:	eb 39                	jmp    402c7b <driver_post+0x68>
  402c42:	48 85 ff             	test   %rdi,%rdi
  402c45:	74 26                	je     402c6d <driver_post+0x5a>
  402c47:	80 3f 00             	cmpb   $0x0,(%rdi)
  402c4a:	74 21                	je     402c6d <driver_post+0x5a>
  402c4c:	4c 89 0c 24          	mov    %r9,(%rsp)
  402c50:	49 89 c9             	mov    %rcx,%r9
  402c53:	49 89 d0             	mov    %rdx,%r8
  402c56:	48 89 f9             	mov    %rdi,%rcx
  402c59:	48 89 f2             	mov    %rsi,%rdx
  402c5c:	be 99 3a 00 00       	mov    $0x3a99,%esi
  402c61:	bf 94 30 40 00       	mov    $0x403094,%edi
  402c66:	e8 9c f6 ff ff       	callq  402307 <submitr>
  402c6b:	eb 0e                	jmp    402c7b <driver_post+0x68>
  402c6d:	66 c7 03 4f 4b       	movw   $0x4b4f,(%rbx)
  402c72:	c6 43 02 00          	movb   $0x0,0x2(%rbx)
  402c76:	b8 00 00 00 00       	mov    $0x0,%eax
  402c7b:	48 83 c4 10          	add    $0x10,%rsp
  402c7f:	5b                   	pop    %rbx
  402c80:	c3                   	retq   
  402c81:	66 2e 0f 1f 84 00 00 	nopw   %cs:0x0(%rax,%rax,1)
  402c88:	00 00 00 
  402c8b:	0f 1f 44 00 00       	nopl   0x0(%rax,%rax,1)

0000000000402c90 <check>:
  402c90:	89 fa                	mov    %edi,%edx
  402c92:	c1 ea 1c             	shr    $0x1c,%edx
  402c95:	b8 00 00 00 00       	mov    $0x0,%eax
  402c9a:	85 d2                	test   %edx,%edx
  402c9c:	74 2e                	je     402ccc <check+0x3c>
  402c9e:	40 80 ff 0a          	cmp    $0xa,%dil
  402ca2:	74 17                	je     402cbb <check+0x2b>
  402ca4:	b9 08 00 00 00       	mov    $0x8,%ecx
  402ca9:	89 f8                	mov    %edi,%eax
  402cab:	d3 e8                	shr    %cl,%eax
  402cad:	3c 0a                	cmp    $0xa,%al
  402caf:	74 10                	je     402cc1 <check+0x31>
  402cb1:	83 c1 08             	add    $0x8,%ecx
  402cb4:	83 f9 20             	cmp    $0x20,%ecx
  402cb7:	75 f0                	jne    402ca9 <check+0x19>
  402cb9:	eb 0c                	jmp    402cc7 <check+0x37>
  402cbb:	b8 00 00 00 00       	mov    $0x0,%eax
  402cc0:	c3                   	retq   
  402cc1:	b8 00 00 00 00       	mov    $0x0,%eax
  402cc6:	c3                   	retq   
  402cc7:	b8 01 00 00 00       	mov    $0x1,%eax
  402ccc:	f3 c3                	repz retq 

0000000000402cce <gencookie>:
  402cce:	53                   	push   %rbx
  402ccf:	83 c7 01             	add    $0x1,%edi
  402cd2:	e8 29 df ff ff       	callq  400c00 <srandom@plt>
  402cd7:	e8 44 e0 ff ff       	callq  400d20 <random@plt>
  402cdc:	89 c3                	mov    %eax,%ebx
  402cde:	89 c7                	mov    %eax,%edi
  402ce0:	e8 ab ff ff ff       	callq  402c90 <check>
  402ce5:	85 c0                	test   %eax,%eax
  402ce7:	74 ee                	je     402cd7 <gencookie+0x9>
  402ce9:	89 d8                	mov    %ebx,%eax
  402ceb:	5b                   	pop    %rbx
  402cec:	c3                   	retq   
  402ced:	0f 1f 00             	nopl   (%rax)

0000000000402cf0 <__libc_csu_init>:
  402cf0:	41 57                	push   %r15
  402cf2:	41 89 ff             	mov    %edi,%r15d
  402cf5:	41 56                	push   %r14
  402cf7:	49 89 f6             	mov    %rsi,%r14
  402cfa:	41 55                	push   %r13
  402cfc:	49 89 d5             	mov    %rdx,%r13
  402cff:	41 54                	push   %r12
  402d01:	4c 8d 25 08 21 20 00 	lea    0x202108(%rip),%r12        # 604e10 <__frame_dummy_init_array_entry>
  402d08:	55                   	push   %rbp
  402d09:	48 8d 2d 08 21 20 00 	lea    0x202108(%rip),%rbp        # 604e18 <__init_array_end>
  402d10:	53                   	push   %rbx
  402d11:	4c 29 e5             	sub    %r12,%rbp
  402d14:	31 db                	xor    %ebx,%ebx
  402d16:	48 c1 fd 03          	sar    $0x3,%rbp
  402d1a:	48 83 ec 08          	sub    $0x8,%rsp
  402d1e:	e8 8d de ff ff       	callq  400bb0 <_init>
  402d23:	48 85 ed             	test   %rbp,%rbp
  402d26:	74 1e                	je     402d46 <__libc_csu_init+0x56>
  402d28:	0f 1f 84 00 00 00 00 	nopl   0x0(%rax,%rax,1)
  402d2f:	00 
  402d30:	4c 89 ea             	mov    %r13,%rdx
  402d33:	4c 89 f6             	mov    %r14,%rsi
  402d36:	44 89 ff             	mov    %r15d,%edi
  402d39:	41 ff 14 dc          	callq  *(%r12,%rbx,8)
  402d3d:	48 83 c3 01          	add    $0x1,%rbx
  402d41:	48 39 eb             	cmp    %rbp,%rbx
  402d44:	75 ea                	jne    402d30 <__libc_csu_init+0x40>
  402d46:	48 83 c4 08          	add    $0x8,%rsp
  402d4a:	5b                   	pop    %rbx
  402d4b:	5d                   	pop    %rbp
  402d4c:	41 5c                	pop    %r12
  402d4e:	41 5d                	pop    %r13
  402d50:	41 5e                	pop    %r14
  402d52:	41 5f                	pop    %r15
  402d54:	c3                   	retq   
  402d55:	90                   	nop
  402d56:	66 2e 0f 1f 84 00 00 	nopw   %cs:0x0(%rax,%rax,1)
  402d5d:	00 00 00 

0000000000402d60 <__libc_csu_fini>:
  402d60:	f3 c3                	repz retq 

Disassembly of section .fini:

0000000000402d64 <_fini>:
  402d64:	48 83 ec 08          	sub    $0x8,%rsp
  402d68:	48 83 c4 08          	add    $0x8,%rsp
  402d6c:	c3                   	retq   
